(lp0
(S'cppflags'
p1
ccopy_reg
_reconstructor
p2
(cino.utils
SpaceList
p3
c__builtin__
list
p4
(lp5
S'-mmcu=atmega328p'
p6
aS'-DF_CPU=16000000L'
p7
aS'-DARDUINO=105'
p8
aS'-I/usr/share/arduino/hardware/arduino/cores/arduino'
p9
aS'-ffunction-sections'
p10
aS'-fdata-sections'
p11
aS'-g'
p12
aS'-Os'
p13
aS'-w'
p14
aS'-I/usr/share/arduino/hardware/arduino/variants/standard'
p15
aS'-I/usr/share/arduino/hardware/arduino/cores/arduino'
p16
aS'-I/usr/share/arduino/hardware/arduino/cores/arduino/avr-libc'
p17
aS'-Ilib/ros_lib'
p18
aS'-Ilib/ros_lib/nodelet'
p19
aS'-Ilib/ros_lib/controller_manager_msgs'
p20
aS'-Ilib/ros_lib/theora_image_transport'
p21
aS'-Ilib/ros_lib/rosserial_msgs'
p22
aS'-Ilib/ros_lib/std_srvs'
p23
aS'-Ilib/ros_lib/roscpp_tutorials'
p24
aS'-Ilib/ros_lib/rospy_tutorials'
p25
aS'-Ilib/ros_lib/visualization_msgs'
p26
aS'-Ilib/ros_lib/tf2_msgs'
p27
aS'-Ilib/ros_lib/rosserial_arduino'
p28
aS'-Ilib/ros_lib/std_msgs'
p29
aS'-Ilib/ros_lib/topic_tools'
p30
aS'-Ilib/ros_lib/nav_msgs'
p31
aS'-Ilib/ros_lib/tf'
p32
aS'-Ilib/ros_lib/laser_assembler'
p33
aS'-Ilib/ros_lib/ros'
p34
aS'-Ilib/ros_lib/turtle_actionlib'
p35
aS'-Ilib/ros_lib/motors'
p36
aS'-Ilib/ros_lib/sensor_msgs'
p37
aS'-Ilib/ros_lib/trajectory_msgs'
p38
aS'-Ilib/ros_lib/rosgraph_msgs'
p39
aS'-Ilib/ros_lib/tests'
p40
aS'-Ilib/ros_lib/control_msgs'
p41
aS'-Ilib/ros_lib/actionlib'
p42
aS'-Ilib/ros_lib/pcl_msgs'
p43
aS'-Ilib/ros_lib/diagnostic_msgs'
p44
aS'-Ilib/ros_lib/dynamic_reconfigure'
p45
aS'-Ilib/ros_lib/motor_control'
p46
aS'-Ilib/ros_lib/stereo_msgs'
p47
aS'-Ilib/ros_lib/polled_camera'
p48
aS'-Ilib/ros_lib/bond'
p49
aS'-Ilib/ros_lib/turtlesim'
p50
aS'-Ilib/ros_lib/control_toolbox'
p51
aS'-Ilib/ros_lib/roscpp'
p52
aS'-Ilib/ros_lib/actionlib_tutorials'
p53
aS'-Ilib/ros_lib/actionlib_msgs'
p54
aS'-Ilib/ros_lib/map_msgs'
p55
aS'-Ilib/ros_lib/shape_msgs'
p56
aS'-Ilib/ros_lib/gazebo_msgs'
p57
aS'-Ilib/ros_lib/smach_msgs'
p58
aS'-Ilib/ros_lib/geometry_msgs'
p59
aS'-Ilib/ros_lib/tests/time_test'
p60
aS'-Ilib/ros_lib/tests/array_test'
p61
aS'-Ilib/ros_lib/tests/float64_test'
p62
atp63
Rp64
tp65
a(S'cxx'
p66
S'/usr/share/arduino/hardware/tools/avr/bin/avr-g++'
p67
tp68
a(S'version.txt'
p69
S'/usr/share/arduino/lib/version.txt'
p70
tp71
a(S'used_libs'
p72
(lp73
S'/usr/share/arduino/hardware/arduino/cores/arduino'
p74
aS'lib/ros_lib'
p75
atp76
a(S'cc'
p77
S'/usr/share/arduino/hardware/tools/avr/bin/avr-gcc'
p78
tp79
a(S'make'
p80
S'/usr/share/arduino/hardware/tools/avr/bin/make'
p81
tp82
a(S'cflags'
p83
g2
(g3
g4
(lp84
tp85
Rp86
tp87
a(S'build_dir'
p88
S'.build/uno'
p89
tp90
a(S'arduino_core_dir'
p91
g74
tp92
a(S'boards.txt'
p93
(lp94
S'/usr/share/arduino/hardware/arduino/boards.txt'
p95
atp96
a(S'cxxflags'
p97
g2
(g3
g4
(lp98
S'-fno-exceptions'
p99
atp100
Rp101
tp102
a(S'arduino_variants_dir'
p103
S'/usr/share/arduino/hardware/arduino/variants'
p104
tp105
a(S'ar'
p106
S'/usr/share/arduino/hardware/tools/avr/bin/avr-ar'
p107
tp108
a(S'names'
p109
(dp110
S'cpp'
p111
S'%s.cpp'
p112
sS'obj'
p113
S'%s.o'
p114
sS'deps'
p115
S'%s.d'
p116
sS'lib'
p117
S'lib%s.a'
p118
stp119
a(S'deps'
p120
g2
(g3
g4
(lp121
S'.build/uno/src/dependencies.d'
p122
aS'.build/uno/arduino/dependencies.d'
p123
aS'.build/uno/ros_lib/dependencies.d'
p124
atp125
Rp126
tp127
a(S'arduino_libraries_dir'
p128
S'/usr/share/arduino/libraries'
p129
tp130
a(S'arduino_lib_version'
p131
g2
(cino.environment
Version
p132
c__builtin__
tuple
p133
(I1
I0
I5
tp134
tp135
Rp136
tp137
a(S'objcopy'
p138
S'/usr/share/arduino/hardware/tools/avr/bin/avr-objcopy'
p139
tp140
a(S'board_models'
p141
cino.environment
BoardModels
p142
((lp143
(lp144
S'uno'
p145
a(dp146
S'_coredir'
p147
S'/usr/share/arduino/hardware/arduino'
p148
sS'bootloader'
p149
(dp150
S'extended_fuses'
p151
S'0xfd'
p152
sS'high_fuses'
p153
S'0xde'
p154
sS'low_fuses'
p155
S'0xff'
p156
sS'lock_bits'
p157
S'0xcf'
p158
sS'file'
p159
S'optiboot_atmega328.hex'
p160
sS'path'
p161
S'optiboot'
p162
sS'unlock_bits'
p163
S'0xff'
p164
ssS'build'
p165
(dp166
S'core'
p167
S'arduino'
p168
sS'mcu'
p169
S'atmega328p'
p170
sS'f_cpu'
p171
S'16000000L'
p172
sS'variant'
p173
S'standard'
p174
ssS'name'
p175
S'Arduino Uno'
p176
sS'upload'
p177
(dp178
S'protocol'
p179
S'arduino'
p180
sS'maximum_size'
p181
S'32256'
p182
sS'speed'
p183
S'115200'
p184
ssaa(lp185
S'atmega328'
p186
a(dp187
g147
S'/usr/share/arduino/hardware/arduino'
p188
sS'bootloader'
p189
(dp190
S'extended_fuses'
p191
S'0xfd'
p192
sS'high_fuses'
p193
S'0xDA'
p194
sS'low_fuses'
p195
S'0xFF'
p196
sS'lock_bits'
p197
S'0xcf'
p198
sS'file'
p199
S'ATmegaBOOT_168_atmega328.hex'
p200
sS'path'
p201
S'atmega'
p202
sS'unlock_bits'
p203
S'0xff'
p204
ssS'build'
p205
(dp206
S'core'
p207
S'arduino'
p208
sS'mcu'
p209
S'atmega328p'
p210
sS'f_cpu'
p211
S'16000000L'
p212
sS'variant'
p213
S'standard'
p214
ssS'name'
p215
S'Arduino Duemilanove w/ ATmega328'
p216
sS'upload'
p217
(dp218
S'protocol'
p219
S'arduino'
p220
sS'maximum_size'
p221
S'30720'
p222
sS'speed'
p223
S'57600'
p224
ssaa(lp225
S'diecimila'
p226
a(dp227
g147
S'/usr/share/arduino/hardware/arduino'
p228
sS'bootloader'
p229
(dp230
S'extended_fuses'
p231
S'0xf8'
p232
sS'high_fuses'
p233
S'0xdd'
p234
sS'low_fuses'
p235
S'0xff'
p236
sS'lock_bits'
p237
S'0xcf'
p238
sS'file'
p239
S'ATmegaBOOT_168_diecimila.hex'
p240
sS'path'
p241
S'atmega'
p242
sS'unlock_bits'
p243
S'0xff'
p244
ssS'build'
p245
(dp246
S'core'
p247
S'arduino'
p248
sS'mcu'
p249
S'atmega168'
p250
sS'f_cpu'
p251
S'16000000L'
p252
sS'variant'
p253
S'standard'
p254
ssS'name'
p255
S'Arduino Diecimila or Duemilanove w/ ATmega168'
p256
sS'upload'
p257
(dp258
S'protocol'
p259
S'arduino'
p260
sS'maximum_size'
p261
S'14336'
p262
sS'speed'
p263
S'19200'
p264
ssaa(lp265
S'nano328'
p266
a(dp267
g147
S'/usr/share/arduino/hardware/arduino'
p268
sS'bootloader'
p269
(dp270
S'extended_fuses'
p271
S'0xfd'
p272
sS'high_fuses'
p273
S'0xDA'
p274
sS'low_fuses'
p275
S'0xFF'
p276
sS'lock_bits'
p277
S'0xcf'
p278
sS'file'
p279
S'ATmegaBOOT_168_atmega328.hex'
p280
sS'path'
p281
S'atmega'
p282
sS'unlock_bits'
p283
S'0xff'
p284
ssS'build'
p285
(dp286
S'core'
p287
S'arduino'
p288
sS'mcu'
p289
S'atmega328p'
p290
sS'f_cpu'
p291
S'16000000L'
p292
sS'variant'
p293
S'eightanaloginputs'
p294
ssS'name'
p295
S'Arduino Nano w/ ATmega328'
p296
sS'upload'
p297
(dp298
S'protocol'
p299
S'arduino'
p300
sS'maximum_size'
p301
S'30720'
p302
sS'speed'
p303
S'57600'
p304
ssaa(lp305
S'nano'
p306
a(dp307
g147
S'/usr/share/arduino/hardware/arduino'
p308
sS'bootloader'
p309
(dp310
S'extended_fuses'
p311
S'0xf8'
p312
sS'high_fuses'
p313
S'0xdd'
p314
sS'low_fuses'
p315
S'0xff'
p316
sS'lock_bits'
p317
S'0xcf'
p318
sS'file'
p319
S'ATmegaBOOT_168_diecimila.hex'
p320
sS'path'
p321
S'atmega'
p322
sS'unlock_bits'
p323
S'0xff'
p324
ssS'build'
p325
(dp326
S'core'
p327
S'arduino'
p328
sS'mcu'
p329
S'atmega168'
p330
sS'f_cpu'
p331
S'16000000L'
p332
sS'variant'
p333
S'eightanaloginputs'
p334
ssS'name'
p335
S'Arduino Nano w/ ATmega168'
p336
sS'upload'
p337
(dp338
S'protocol'
p339
S'arduino'
p340
sS'maximum_size'
p341
S'14336'
p342
sS'speed'
p343
S'19200'
p344
ssaa(lp345
S'mega2560'
p346
a(dp347
g147
S'/usr/share/arduino/hardware/arduino'
p348
sS'bootloader'
p349
(dp350
S'extended_fuses'
p351
S'0xFD'
p352
sS'high_fuses'
p353
S'0xD8'
p354
sS'low_fuses'
p355
S'0xFF'
p356
sS'lock_bits'
p357
S'0xcf'
p358
sS'file'
p359
S'stk500boot_v2_mega2560.hex'
p360
sS'path'
p361
S'stk500v2'
p362
sS'unlock_bits'
p363
S'0xff'
p364
ssS'build'
p365
(dp366
S'core'
p367
S'arduino'
p368
sS'mcu'
p369
S'atmega2560'
p370
sS'f_cpu'
p371
S'16000000L'
p372
sS'variant'
p373
S'mega'
p374
ssS'name'
p375
S'Arduino Mega 2560 or Mega ADK'
p376
sS'upload'
p377
(dp378
S'protocol'
p379
S'wiring'
p380
sS'maximum_size'
p381
S'258048'
p382
sS'speed'
p383
S'115200'
p384
ssaa(lp385
S'mega'
p386
a(dp387
g147
S'/usr/share/arduino/hardware/arduino'
p388
sS'bootloader'
p389
(dp390
S'extended_fuses'
p391
S'0xF5'
p392
sS'high_fuses'
p393
S'0xDA'
p394
sS'low_fuses'
p395
S'0xFF'
p396
sS'lock_bits'
p397
S'0xcf'
p398
sS'file'
p399
S'ATmegaBOOT_168_atmega1280.hex'
p400
sS'path'
p401
S'atmega'
p402
sS'unlock_bits'
p403
S'0xff'
p404
ssS'build'
p405
(dp406
S'core'
p407
S'arduino'
p408
sS'mcu'
p409
S'atmega1280'
p410
sS'f_cpu'
p411
S'16000000L'
p412
sS'variant'
p413
S'mega'
p414
ssS'name'
p415
S'Arduino Mega (ATmega1280)'
p416
sS'upload'
p417
(dp418
S'protocol'
p419
S'arduino'
p420
sS'maximum_size'
p421
S'126976'
p422
sS'speed'
p423
S'57600'
p424
ssaa(lp425
S'leonardo'
p426
a(dp427
g147
S'/usr/share/arduino/hardware/arduino'
p428
sS'bootloader'
p429
(dp430
S'extended_fuses'
p431
S'0xcb'
p432
sS'high_fuses'
p433
S'0xd8'
p434
sS'low_fuses'
p435
S'0xff'
p436
sS'lock_bits'
p437
S'0xef'
p438
sS'file'
p439
S'Caterina-Leonardo.hex'
p440
sS'path'
p441
S'caterina'
p442
sS'unlock_bits'
p443
S'0xff'
p444
ssS'build'
p445
(dp446
S'core'
p447
S'arduino'
p448
sS'f_cpu'
p449
S'16000000L'
p450
sS'vid'
p451
S'0x2341'
p452
sS'pid'
p453
S'0x8036'
p454
sS'variant'
p455
S'leonardo'
p456
sS'mcu'
p457
S'atmega32u4'
p458
ssS'name'
p459
S'Arduino Leonardo'
p460
sS'upload'
p461
(dp462
S'protocol'
p463
S'avr109'
p464
sS'maximum_size'
p465
S'28672'
p466
sS'speed'
p467
S'57600'
p468
sS'disable_flushing'
p469
S'true'
p470
ssaa(lp471
S'esplora'
p472
a(dp473
g147
S'/usr/share/arduino/hardware/arduino'
p474
sS'bootloader'
p475
(dp476
S'extended_fuses'
p477
S'0xcb'
p478
sS'high_fuses'
p479
S'0xd8'
p480
sS'low_fuses'
p481
S'0xff'
p482
sS'lock_bits'
p483
S'0xef'
p484
sS'file'
p485
S'Caterina-Esplora.hex'
p486
sS'path'
p487
S'caterina'
p488
sS'unlock_bits'
p489
S'0xff'
p490
ssS'build'
p491
(dp492
S'core'
p493
S'arduino'
p494
sS'f_cpu'
p495
S'16000000L'
p496
sS'vid'
p497
S'0x2341'
p498
sS'pid'
p499
S'0x803C'
p500
sS'variant'
p501
S'leonardo'
p502
sS'mcu'
p503
S'atmega32u4'
p504
ssS'name'
p505
S'Arduino Esplora'
p506
sS'upload'
p507
(dp508
S'protocol'
p509
S'avr109'
p510
sS'maximum_size'
p511
S'28672'
p512
sS'speed'
p513
S'57600'
p514
sS'disable_flushing'
p515
S'true'
p516
ssaa(lp517
S'micro'
p518
a(dp519
g147
S'/usr/share/arduino/hardware/arduino'
p520
sS'bootloader'
p521
(dp522
S'extended_fuses'
p523
S'0xcb'
p524
sS'high_fuses'
p525
S'0xd8'
p526
sS'low_fuses'
p527
S'0xff'
p528
sS'lock_bits'
p529
S'0xef'
p530
sS'file'
p531
S'Caterina-Micro.hex'
p532
sS'path'
p533
S'caterina'
p534
sS'unlock_bits'
p535
S'0xff'
p536
ssS'build'
p537
(dp538
S'core'
p539
S'arduino'
p540
sS'f_cpu'
p541
S'16000000L'
p542
sS'vid'
p543
S'0x2341'
p544
sS'pid'
p545
S'0x8037'
p546
sS'variant'
p547
S'micro'
p548
sS'mcu'
p549
S'atmega32u4'
p550
ssS'name'
p551
S'Arduino Micro'
p552
sS'upload'
p553
(dp554
S'protocol'
p555
S'avr109'
p556
sS'maximum_size'
p557
S'28672'
p558
sS'speed'
p559
S'57600'
p560
sS'disable_flushing'
p561
S'true'
p562
ssaa(lp563
S'mini328'
p564
a(dp565
g147
S'/usr/share/arduino/hardware/arduino'
p566
sS'bootloader'
p567
(dp568
S'extended_fuses'
p569
S'0xfd'
p570
sS'high_fuses'
p571
S'0xd8'
p572
sS'low_fuses'
p573
S'0xff'
p574
sS'lock_bits'
p575
S'0xcf'
p576
sS'file'
p577
S'optiboot_atmega328-Mini.hex'
p578
sS'path'
p579
S'optiboot'
p580
sS'unlock_bits'
p581
S'0xff'
p582
ssS'build'
p583
(dp584
S'core'
p585
S'arduino'
p586
sS'mcu'
p587
S'atmega328p'
p588
sS'f_cpu'
p589
S'16000000L'
p590
sS'variant'
p591
S'eightanaloginputs'
p592
ssS'name'
p593
S'Arduino Mini w/ ATmega328'
p594
sS'upload'
p595
(dp596
S'protocol'
p597
S'arduino'
p598
sS'maximum_size'
p599
S'28672'
p600
sS'speed'
p601
S'115200'
p602
ssaa(lp603
S'mini'
p604
a(dp605
g147
S'/usr/share/arduino/hardware/arduino'
p606
sS'bootloader'
p607
(dp608
S'extended_fuses'
p609
S'0xf8'
p610
sS'high_fuses'
p611
S'0xdd'
p612
sS'low_fuses'
p613
S'0xff'
p614
sS'lock_bits'
p615
S'0xcf'
p616
sS'file'
p617
S'ATmegaBOOT_168_ng.hex'
p618
sS'path'
p619
S'atmega'
p620
sS'unlock_bits'
p621
S'0xff'
p622
ssS'build'
p623
(dp624
S'core'
p625
S'arduino'
p626
sS'mcu'
p627
S'atmega168'
p628
sS'f_cpu'
p629
S'16000000L'
p630
sS'variant'
p631
S'eightanaloginputs'
p632
ssS'name'
p633
S'Arduino Mini w/ ATmega168'
p634
sS'upload'
p635
(dp636
S'protocol'
p637
S'arduino'
p638
sS'maximum_size'
p639
S'14336'
p640
sS'speed'
p641
S'19200'
p642
ssaa(lp643
S'ethernet'
p644
a(dp645
g147
S'/usr/share/arduino/hardware/arduino'
p646
sS'bootloader'
p647
(dp648
S'extended_fuses'
p649
S'0xfd'
p650
sS'high_fuses'
p651
S'0xde'
p652
sS'low_fuses'
p653
S'0xff'
p654
sS'lock_bits'
p655
S'0xcf'
p656
sS'file'
p657
S'optiboot_atmega328.hex'
p658
sS'path'
p659
S'optiboot'
p660
sS'unlock_bits'
p661
S'0xff'
p662
ssS'build'
p663
(dp664
S'variant'
p665
S'standard'
p666
sS'mcu'
p667
S'atmega328p'
p668
sS'f_cpu'
p669
S'16000000L'
p670
sS'core'
p671
S'arduino'
p672
ssS'name'
p673
S'Arduino Ethernet'
p674
sS'upload'
p675
(dp676
S'protocol'
p677
S'arduino'
p678
sS'maximum_size'
p679
S'32256'
p680
sS'speed'
p681
S'115200'
p682
ssaa(lp683
S'fio'
p684
a(dp685
g147
S'/usr/share/arduino/hardware/arduino'
p686
sS'bootloader'
p687
(dp688
S'extended_fuses'
p689
S'0xfd'
p690
sS'high_fuses'
p691
S'0xDA'
p692
sS'low_fuses'
p693
S'0xFF'
p694
sS'lock_bits'
p695
S'0xcf'
p696
sS'file'
p697
S'ATmegaBOOT_168_atmega328_pro_8MHz.hex'
p698
sS'path'
p699
S'arduino:atmega'
p700
sS'unlock_bits'
p701
S'0xff'
p702
ssS'build'
p703
(dp704
S'core'
p705
S'arduino'
p706
sS'mcu'
p707
S'atmega328p'
p708
sS'f_cpu'
p709
S'8000000L'
p710
sS'variant'
p711
S'eightanaloginputs'
p712
ssS'name'
p713
S'Arduino Fio'
p714
sS'upload'
p715
(dp716
S'protocol'
p717
S'arduino'
p718
sS'maximum_size'
p719
S'30720'
p720
sS'speed'
p721
S'57600'
p722
ssaa(lp723
S'bt328'
p724
a(dp725
g147
S'/usr/share/arduino/hardware/arduino'
p726
sS'bootloader'
p727
(dp728
S'extended_fuses'
p729
S'0xfd'
p730
sS'high_fuses'
p731
S'0xd8'
p732
sS'low_fuses'
p733
S'0xff'
p734
sS'lock_bits'
p735
S'0xcf'
p736
sS'file'
p737
S'ATmegaBOOT_168_atmega328_bt.hex'
p738
sS'path'
p739
S'bt'
p740
sS'unlock_bits'
p741
S'0xff'
p742
ssS'build'
p743
(dp744
S'core'
p745
S'arduino'
p746
sS'mcu'
p747
S'atmega328p'
p748
sS'f_cpu'
p749
S'16000000L'
p750
sS'variant'
p751
S'eightanaloginputs'
p752
ssS'name'
p753
S'Arduino BT w/ ATmega328'
p754
sS'upload'
p755
(dp756
S'protocol'
p757
S'arduino'
p758
sS'maximum_size'
p759
S'28672'
p760
sS'speed'
p761
S'19200'
p762
sS'disable_flushing'
p763
S'true'
p764
ssaa(lp765
S'bt'
p766
a(dp767
g147
S'/usr/share/arduino/hardware/arduino'
p768
sS'bootloader'
p769
(dp770
S'extended_fuses'
p771
S'0xf8'
p772
sS'high_fuses'
p773
S'0xdd'
p774
sS'low_fuses'
p775
S'0xff'
p776
sS'lock_bits'
p777
S'0xcf'
p778
sS'file'
p779
S'ATmegaBOOT_168.hex'
p780
sS'path'
p781
S'bt'
p782
sS'unlock_bits'
p783
S'0xff'
p784
ssS'build'
p785
(dp786
S'core'
p787
S'arduino'
p788
sS'mcu'
p789
S'atmega168'
p790
sS'f_cpu'
p791
S'16000000L'
p792
sS'variant'
p793
S'eightanaloginputs'
p794
ssS'name'
p795
S'Arduino BT w/ ATmega168'
p796
sS'upload'
p797
(dp798
S'protocol'
p799
S'arduino'
p800
sS'maximum_size'
p801
S'14336'
p802
sS'speed'
p803
S'19200'
p804
sS'disable_flushing'
p805
S'true'
p806
ssaa(lp807
S'LilyPadUSB'
p808
a(dp809
g147
S'/usr/share/arduino/hardware/arduino'
p810
sS'bootloader'
p811
(dp812
S'extended_fuses'
p813
S'0xce'
p814
sS'high_fuses'
p815
S'0xd8'
p816
sS'low_fuses'
p817
S'0xff'
p818
sS'lock_bits'
p819
S'0xef'
p820
sS'file'
p821
S'Caterina-LilyPadUSB.hex'
p822
sS'path'
p823
S'caterina-LilyPadUSB'
p824
sS'unlock_bits'
p825
S'0xff'
p826
ssS'build'
p827
(dp828
S'core'
p829
S'arduino'
p830
sS'f_cpu'
p831
S'8000000L'
p832
sS'vid'
p833
S'0x1B4F'
p834
sS'pid'
p835
S'0x9208'
p836
sS'variant'
p837
S'leonardo'
p838
sS'mcu'
p839
S'atmega32u4'
p840
ssS'name'
p841
S'LilyPad Arduino USB'
p842
sS'upload'
p843
(dp844
S'protocol'
p845
S'avr109'
p846
sS'maximum_size'
p847
S'28672'
p848
sS'speed'
p849
S'57600'
p850
sS'disable_flushing'
p851
S'true'
p852
ssaa(lp853
S'lilypad328'
p854
a(dp855
g147
S'/usr/share/arduino/hardware/arduino'
p856
sS'bootloader'
p857
(dp858
S'extended_fuses'
p859
S'0xfd'
p860
sS'high_fuses'
p861
S'0xDA'
p862
sS'low_fuses'
p863
S'0xFF'
p864
sS'lock_bits'
p865
S'0xcf'
p866
sS'file'
p867
S'ATmegaBOOT_168_atmega328_pro_8MHz.hex'
p868
sS'path'
p869
S'atmega'
p870
sS'unlock_bits'
p871
S'0xff'
p872
ssS'build'
p873
(dp874
S'core'
p875
S'arduino'
p876
sS'mcu'
p877
S'atmega328p'
p878
sS'f_cpu'
p879
S'8000000L'
p880
sS'variant'
p881
S'standard'
p882
ssS'name'
p883
S'LilyPad Arduino w/ ATmega328'
p884
sS'upload'
p885
(dp886
S'protocol'
p887
S'arduino'
p888
sS'maximum_size'
p889
S'30720'
p890
sS'speed'
p891
S'57600'
p892
ssaa(lp893
S'lilypad'
p894
a(dp895
g147
S'/usr/share/arduino/hardware/arduino'
p896
sS'bootloader'
p897
(dp898
S'extended_fuses'
p899
S'0xf8'
p900
sS'high_fuses'
p901
S'0xdd'
p902
sS'low_fuses'
p903
S'0xe2'
p904
sS'lock_bits'
p905
S'0xcf'
p906
sS'file'
p907
S'LilyPadBOOT_168.hex'
p908
sS'path'
p909
S'lilypad'
p910
sS'unlock_bits'
p911
S'0xff'
p912
ssS'build'
p913
(dp914
S'core'
p915
S'arduino'
p916
sS'mcu'
p917
S'atmega168'
p918
sS'f_cpu'
p919
S'8000000L'
p920
sS'variant'
p921
S'standard'
p922
ssS'name'
p923
S'LilyPad Arduino w/ ATmega168'
p924
sS'upload'
p925
(dp926
S'protocol'
p927
S'arduino'
p928
sS'maximum_size'
p929
S'14336'
p930
sS'speed'
p931
S'19200'
p932
ssaa(lp933
S'pro5v328'
p934
a(dp935
g147
S'/usr/share/arduino/hardware/arduino'
p936
sS'bootloader'
p937
(dp938
S'extended_fuses'
p939
S'0xfd'
p940
sS'high_fuses'
p941
S'0xDA'
p942
sS'low_fuses'
p943
S'0xFF'
p944
sS'lock_bits'
p945
S'0xcf'
p946
sS'file'
p947
S'ATmegaBOOT_168_atmega328.hex'
p948
sS'path'
p949
S'atmega'
p950
sS'unlock_bits'
p951
S'0xff'
p952
ssS'build'
p953
(dp954
S'core'
p955
S'arduino'
p956
sS'mcu'
p957
S'atmega328p'
p958
sS'f_cpu'
p959
S'16000000L'
p960
sS'variant'
p961
S'standard'
p962
ssS'name'
p963
S'Arduino Pro or Pro Mini (5V, 16 MHz) w/ ATmega328'
p964
sS'upload'
p965
(dp966
S'protocol'
p967
S'arduino'
p968
sS'maximum_size'
p969
S'30720'
p970
sS'speed'
p971
S'57600'
p972
ssaa(lp973
S'pro5v'
p974
a(dp975
g147
S'/usr/share/arduino/hardware/arduino'
p976
sS'bootloader'
p977
(dp978
S'extended_fuses'
p979
S'0xf8'
p980
sS'high_fuses'
p981
S'0xdd'
p982
sS'low_fuses'
p983
S'0xff'
p984
sS'lock_bits'
p985
S'0xcf'
p986
sS'file'
p987
S'ATmegaBOOT_168_diecimila.hex'
p988
sS'path'
p989
S'atmega'
p990
sS'unlock_bits'
p991
S'0xff'
p992
ssS'build'
p993
(dp994
S'core'
p995
S'arduino'
p996
sS'mcu'
p997
S'atmega168'
p998
sS'f_cpu'
p999
S'16000000L'
p1000
sS'variant'
p1001
S'standard'
p1002
ssS'name'
p1003
S'Arduino Pro or Pro Mini (5V, 16 MHz) w/ ATmega168'
p1004
sS'upload'
p1005
(dp1006
S'protocol'
p1007
S'arduino'
p1008
sS'maximum_size'
p1009
S'14336'
p1010
sS'speed'
p1011
S'19200'
p1012
ssaa(lp1013
S'pro328'
p1014
a(dp1015
g147
S'/usr/share/arduino/hardware/arduino'
p1016
sS'bootloader'
p1017
(dp1018
S'extended_fuses'
p1019
S'0xfd'
p1020
sS'high_fuses'
p1021
S'0xDA'
p1022
sS'low_fuses'
p1023
S'0xFF'
p1024
sS'lock_bits'
p1025
S'0xcf'
p1026
sS'file'
p1027
S'ATmegaBOOT_168_atmega328_pro_8MHz.hex'
p1028
sS'path'
p1029
S'atmega'
p1030
sS'unlock_bits'
p1031
S'0xff'
p1032
ssS'build'
p1033
(dp1034
S'core'
p1035
S'arduino'
p1036
sS'mcu'
p1037
S'atmega328p'
p1038
sS'f_cpu'
p1039
S'8000000L'
p1040
sS'variant'
p1041
S'standard'
p1042
ssS'name'
p1043
S'Arduino Pro or Pro Mini (3.3V, 8 MHz) w/ ATmega328'
p1044
sS'upload'
p1045
(dp1046
S'protocol'
p1047
S'arduino'
p1048
sS'maximum_size'
p1049
S'30720'
p1050
sS'speed'
p1051
S'57600'
p1052
ssaa(lp1053
S'pro'
p1054
a(dp1055
g147
S'/usr/share/arduino/hardware/arduino'
p1056
sS'bootloader'
p1057
(dp1058
S'extended_fuses'
p1059
S'0xf8'
p1060
sS'high_fuses'
p1061
S'0xdd'
p1062
sS'low_fuses'
p1063
S'0xc6'
p1064
sS'lock_bits'
p1065
S'0xcf'
p1066
sS'file'
p1067
S'ATmegaBOOT_168_pro_8MHz.hex'
p1068
sS'path'
p1069
S'atmega'
p1070
sS'unlock_bits'
p1071
S'0xff'
p1072
ssS'build'
p1073
(dp1074
S'core'
p1075
S'arduino'
p1076
sS'mcu'
p1077
S'atmega168'
p1078
sS'f_cpu'
p1079
S'8000000L'
p1080
sS'variant'
p1081
S'standard'
p1082
ssS'name'
p1083
S'Arduino Pro or Pro Mini (3.3V, 8 MHz) w/ ATmega168'
p1084
sS'upload'
p1085
(dp1086
S'protocol'
p1087
S'arduino'
p1088
sS'maximum_size'
p1089
S'14336'
p1090
sS'speed'
p1091
S'19200'
p1092
ssaa(lp1093
S'atmega168'
p1094
a(dp1095
g147
S'/usr/share/arduino/hardware/arduino'
p1096
sS'bootloader'
p1097
(dp1098
S'extended_fuses'
p1099
S'0xf8'
p1100
sS'high_fuses'
p1101
S'0xdd'
p1102
sS'low_fuses'
p1103
S'0xff'
p1104
sS'lock_bits'
p1105
S'0xcf'
p1106
sS'file'
p1107
S'ATmegaBOOT_168_ng.hex'
p1108
sS'path'
p1109
S'atmega'
p1110
sS'unlock_bits'
p1111
S'0xff'
p1112
ssS'build'
p1113
(dp1114
S'core'
p1115
S'arduino'
p1116
sS'mcu'
p1117
S'atmega168'
p1118
sS'f_cpu'
p1119
S'16000000L'
p1120
sS'variant'
p1121
S'standard'
p1122
ssS'name'
p1123
S'Arduino NG or older w/ ATmega168'
p1124
sS'upload'
p1125
(dp1126
S'protocol'
p1127
S'arduino'
p1128
sS'maximum_size'
p1129
S'14336'
p1130
sS'speed'
p1131
S'19200'
p1132
ssaa(lp1133
S'atmega8'
p1134
a(dp1135
g147
S'/usr/share/arduino/hardware/arduino'
p1136
sS'bootloader'
p1137
(dp1138
S'high_fuses'
p1139
S'0xca'
p1140
sS'low_fuses'
p1141
S'0xdf'
p1142
sS'lock_bits'
p1143
S'0xcf'
p1144
sS'file'
p1145
S'ATmegaBOOT-prod-firmware-2009-11-07.hex'
p1146
sS'path'
p1147
S'atmega8'
p1148
sS'unlock_bits'
p1149
S'0xff'
p1150
ssS'build'
p1151
(dp1152
S'core'
p1153
S'arduino'
p1154
sS'mcu'
p1155
S'atmega8'
p1156
sS'f_cpu'
p1157
S'16000000L'
p1158
sS'variant'
p1159
S'standard'
p1160
ssS'name'
p1161
S'Arduino NG or older w/ ATmega8'
p1162
sS'upload'
p1163
(dp1164
S'protocol'
p1165
S'arduino'
p1166
sS'maximum_size'
p1167
S'7168'
p1168
sS'speed'
p1169
S'19200'
p1170
ssaa(lp1171
S'robotControl'
p1172
a(dp1173
g147
S'/usr/share/arduino/hardware/arduino'
p1174
sS'bootloader'
p1175
(dp1176
S'extended_fuses'
p1177
S'0xcb'
p1178
sS'high_fuses'
p1179
S'0xd8'
p1180
sS'low_fuses'
p1181
S'0xff'
p1182
sS'lock_bits'
p1183
S'0xef'
p1184
sS'file'
p1185
S'Caterina-Robot-Control.hex'
p1186
sS'path'
p1187
S'caterina-Arduino_Robot'
p1188
sS'unlock_bits'
p1189
S'0xff'
p1190
ssS'build'
p1191
(dp1192
S'core'
p1193
S'robot'
p1194
sS'f_cpu'
p1195
S'16000000L'
p1196
sS'vid'
p1197
S'0x2341'
p1198
sS'pid'
p1199
S'0x8038'
p1200
sS'variant'
p1201
S'robot_control'
p1202
sS'mcu'
p1203
S'atmega32u4'
p1204
ssS'name'
p1205
S'Arduino Robot Control'
p1206
sS'upload'
p1207
(dp1208
S'protocol'
p1209
S'avr109'
p1210
sS'maximum_size'
p1211
S'28672'
p1212
sS'speed'
p1213
S'57600'
p1214
sS'disable_flushing'
p1215
S'true'
p1216
ssaa(lp1217
S'robotMotor'
p1218
a(dp1219
g147
S'/usr/share/arduino/hardware/arduino'
p1220
sS'bootloader'
p1221
(dp1222
S'extended_fuses'
p1223
S'0xcb'
p1224
sS'high_fuses'
p1225
S'0xd8'
p1226
sS'low_fuses'
p1227
S'0xff'
p1228
sS'lock_bits'
p1229
S'0xef'
p1230
sS'file'
p1231
S'Caterina-Robot-Motor.hex'
p1232
sS'path'
p1233
S'caterina-Arduino_Robot'
p1234
sS'unlock_bits'
p1235
S'0xff'
p1236
ssS'build'
p1237
(dp1238
S'core'
p1239
S'robot'
p1240
sS'f_cpu'
p1241
S'16000000L'
p1242
sS'vid'
p1243
S'0x2341'
p1244
sS'pid'
p1245
S'0x8039'
p1246
sS'variant'
p1247
S'robot_motor'
p1248
sS'mcu'
p1249
S'atmega32u4'
p1250
ssS'name'
p1251
S'Arduino Robot Motor'
p1252
sS'upload'
p1253
(dp1254
S'protocol'
p1255
S'avr109'
p1256
sS'maximum_size'
p1257
S'28672'
p1258
sS'speed'
p1259
S'57600'
p1260
sS'disable_flushing'
p1261
S'true'
p1262
ssaatp1263
Rp1264
(dp1265
S'default'
p1266
S'uno'
p1267
sbtp1268
a(S'ldflags'
p1269
g2
(g3
g4
(lp1270
g6
aS'-Wl,-Os'
p1271
aS'-Wl,--gc-sections'
p1272
atp1273
Rp1274
tp1275
a.