(lp0
(S'cppflags'
p1
ccopy_reg
_reconstructor
p2
(cino.utils
SpaceList
p3
c__builtin__
list
p4
(lp5
S'-mmcu=atmega328p'
p6
aS'-DF_CPU=16000000L'
p7
aS'-DARDUINO=105'
p8
aS'-I/usr/share/arduino/hardware/arduino/cores/arduino'
p9
aS'-ffunction-sections'
p10
aS'-fdata-sections'
p11
aS'-g'
p12
aS'-Os'
p13
aS'-w'
p14
aS'-I/usr/share/arduino/hardware/arduino/variants/standard'
p15
aS'-I/usr/share/arduino/hardware/arduino/cores/arduino'
p16
aS'-I/usr/share/arduino/hardware/arduino/cores/arduino/avr-libc'
p17
aS'-Ilib/ros_lib'
p18
aS'-Ilib/ros_lib/nodelet'
p19
aS'-Ilib/ros_lib/controller_manager_msgs'
p20
aS'-Ilib/ros_lib/theora_image_transport'
p21
aS'-Ilib/ros_lib/rosserial_msgs'
p22
aS'-Ilib/ros_lib/std_srvs'
p23
aS'-Ilib/ros_lib/roscpp_tutorials'
p24
aS'-Ilib/ros_lib/rospy_tutorials'
p25
aS'-Ilib/ros_lib/visualization_msgs'
p26
aS'-Ilib/ros_lib/tf2_msgs'
p27
aS'-Ilib/ros_lib/rosserial_arduino'
p28
aS'-Ilib/ros_lib/std_msgs'
p29
aS'-Ilib/ros_lib/topic_tools'
p30
aS'-Ilib/ros_lib/nav_msgs'
p31
aS'-Ilib/ros_lib/tf'
p32
aS'-Ilib/ros_lib/laser_assembler'
p33
aS'-Ilib/ros_lib/ros'
p34
aS'-Ilib/ros_lib/turtle_actionlib'
p35
aS'-Ilib/ros_lib/motors'
p36
aS'-Ilib/ros_lib/sensor_msgs'
p37
aS'-Ilib/ros_lib/trajectory_msgs'
p38
aS'-Ilib/ros_lib/rosgraph_msgs'
p39
aS'-Ilib/ros_lib/tests'
p40
aS'-Ilib/ros_lib/control_msgs'
p41
aS'-Ilib/ros_lib/actionlib'
p42
aS'-Ilib/ros_lib/pcl_msgs'
p43
aS'-Ilib/ros_lib/diagnostic_msgs'
p44
aS'-Ilib/ros_lib/dynamic_reconfigure'
p45
aS'-Ilib/ros_lib/motor_control'
p46
aS'-Ilib/ros_lib/stereo_msgs'
p47
aS'-Ilib/ros_lib/polled_camera'
p48
aS'-Ilib/ros_lib/bond'
p49
aS'-Ilib/ros_lib/turtlesim'
p50
aS'-Ilib/ros_lib/control_toolbox'
p51
aS'-Ilib/ros_lib/roscpp'
p52
aS'-Ilib/ros_lib/actionlib_tutorials'
p53
aS'-Ilib/ros_lib/actionlib_msgs'
p54
aS'-Ilib/ros_lib/map_msgs'
p55
aS'-Ilib/ros_lib/shape_msgs'
p56
aS'-Ilib/ros_lib/gazebo_msgs'
p57
aS'-Ilib/ros_lib/smach_msgs'
p58
aS'-Ilib/ros_lib/geometry_msgs'
p59
aS'-Ilib/ros_lib/tests/time_test'
p60
aS'-Ilib/ros_lib/tests/array_test'
p61
aS'-Ilib/ros_lib/tests/float64_test'
p62
atp63
Rp64
tp65
a(S'cc'
p66
S'/usr/share/arduino/hardware/tools/avr/bin/avr-gcc'
p67
tp68
a(S'version.txt'
p69
S'/usr/share/arduino/lib/version.txt'
p70
tp71
a(S'used_libs'
p72
(lp73
S'/usr/share/arduino/hardware/arduino/cores/arduino'
p74
aS'lib/ros_lib'
p75
atp76
a(S'cxx'
p77
S'/usr/share/arduino/hardware/tools/avr/bin/avr-g++'
p78
tp79
a(S'make'
p80
S'/usr/share/arduino/hardware/tools/avr/bin/make'
p81
tp82
a(S'build_dir'
p83
S'.build/uno'
p84
tp85
a(S'arduino_core_dir'
p86
g74
tp87
a(S'boards.txt'
p88
(lp89
S'/usr/share/arduino/hardware/arduino/boards.txt'
p90
atp91
a(S'cxxflags'
p92
g2
(g3
g4
(lp93
S'-fno-exceptions'
p94
atp95
Rp96
tp97
a(S'arduino_variants_dir'
p98
S'/usr/share/arduino/hardware/arduino/variants'
p99
tp100
a(S'deps'
p101
g2
(g3
g4
(lp102
S'.build/uno/src/dependencies.d'
p103
aS'.build/uno/arduino/dependencies.d'
p104
aS'.build/uno/ros_lib/dependencies.d'
p105
atp106
Rp107
tp108
a(S'ar'
p109
S'/usr/share/arduino/hardware/tools/avr/bin/avr-ar'
p110
tp111
a(S'names'
p112
(dp113
S'cpp'
p114
S'%s.cpp'
p115
sS'obj'
p116
S'%s.o'
p117
sS'deps'
p118
S'%s.d'
p119
sS'lib'
p120
S'lib%s.a'
p121
stp122
a(S'cflags'
p123
g2
(g3
g4
(lp124
tp125
Rp126
tp127
a(S'arduino_libraries_dir'
p128
S'/usr/share/arduino/libraries'
p129
tp130
a(S'arduino_lib_version'
p131
g2
(cino.environment
Version
p132
c__builtin__
tuple
p133
(I1
I0
I5
tp134
tp135
Rp136
tp137
a(S'objcopy'
p138
S'/usr/share/arduino/hardware/tools/avr/bin/avr-objcopy'
p139
tp140
a(S'board_models'
p141
cino.environment
BoardModels
p142
((lp143
(lp144
S'uno'
p145
a(dp146
S'bootloader'
p147
(dp148
S'extended_fuses'
p149
S'0xfd'
p150
sS'high_fuses'
p151
S'0xde'
p152
sS'low_fuses'
p153
S'0xff'
p154
sS'lock_bits'
p155
S'0xcf'
p156
sS'file'
p157
S'optiboot_atmega328.hex'
p158
sS'path'
p159
S'optiboot'
p160
sS'unlock_bits'
p161
S'0xff'
p162
ssS'upload'
p163
(dp164
S'speed'
p165
S'115200'
p166
sS'maximum_size'
p167
S'32256'
p168
sS'protocol'
p169
S'arduino'
p170
ssS'build'
p171
(dp172
S'core'
p173
S'arduino'
p174
sS'mcu'
p175
S'atmega328p'
p176
sS'f_cpu'
p177
S'16000000L'
p178
sS'variant'
p179
S'standard'
p180
ssS'name'
p181
S'Arduino Uno'
p182
sS'_coredir'
p183
S'/usr/share/arduino/hardware/arduino'
p184
saa(lp185
S'atmega328'
p186
a(dp187
S'bootloader'
p188
(dp189
S'extended_fuses'
p190
S'0xfd'
p191
sS'high_fuses'
p192
S'0xDA'
p193
sS'low_fuses'
p194
S'0xFF'
p195
sS'lock_bits'
p196
S'0xcf'
p197
sS'file'
p198
S'ATmegaBOOT_168_atmega328.hex'
p199
sS'path'
p200
S'atmega'
p201
sS'unlock_bits'
p202
S'0xff'
p203
ssS'upload'
p204
(dp205
S'speed'
p206
S'57600'
p207
sS'maximum_size'
p208
S'30720'
p209
sS'protocol'
p210
S'arduino'
p211
ssS'build'
p212
(dp213
S'core'
p214
S'arduino'
p215
sS'mcu'
p216
S'atmega328p'
p217
sS'f_cpu'
p218
S'16000000L'
p219
sS'variant'
p220
S'standard'
p221
ssS'name'
p222
S'Arduino Duemilanove w/ ATmega328'
p223
sg183
S'/usr/share/arduino/hardware/arduino'
p224
saa(lp225
S'diecimila'
p226
a(dp227
S'bootloader'
p228
(dp229
S'extended_fuses'
p230
S'0xf8'
p231
sS'high_fuses'
p232
S'0xdd'
p233
sS'low_fuses'
p234
S'0xff'
p235
sS'lock_bits'
p236
S'0xcf'
p237
sS'file'
p238
S'ATmegaBOOT_168_diecimila.hex'
p239
sS'path'
p240
S'atmega'
p241
sS'unlock_bits'
p242
S'0xff'
p243
ssS'upload'
p244
(dp245
S'speed'
p246
S'19200'
p247
sS'maximum_size'
p248
S'14336'
p249
sS'protocol'
p250
S'arduino'
p251
ssS'build'
p252
(dp253
S'core'
p254
S'arduino'
p255
sS'mcu'
p256
S'atmega168'
p257
sS'f_cpu'
p258
S'16000000L'
p259
sS'variant'
p260
S'standard'
p261
ssS'name'
p262
S'Arduino Diecimila or Duemilanove w/ ATmega168'
p263
sg183
S'/usr/share/arduino/hardware/arduino'
p264
saa(lp265
S'nano328'
p266
a(dp267
S'bootloader'
p268
(dp269
S'extended_fuses'
p270
S'0xfd'
p271
sS'high_fuses'
p272
S'0xDA'
p273
sS'low_fuses'
p274
S'0xFF'
p275
sS'lock_bits'
p276
S'0xcf'
p277
sS'file'
p278
S'ATmegaBOOT_168_atmega328.hex'
p279
sS'path'
p280
S'atmega'
p281
sS'unlock_bits'
p282
S'0xff'
p283
ssS'upload'
p284
(dp285
S'speed'
p286
S'57600'
p287
sS'maximum_size'
p288
S'30720'
p289
sS'protocol'
p290
S'arduino'
p291
ssS'build'
p292
(dp293
S'core'
p294
S'arduino'
p295
sS'mcu'
p296
S'atmega328p'
p297
sS'f_cpu'
p298
S'16000000L'
p299
sS'variant'
p300
S'eightanaloginputs'
p301
ssS'name'
p302
S'Arduino Nano w/ ATmega328'
p303
sg183
S'/usr/share/arduino/hardware/arduino'
p304
saa(lp305
S'nano'
p306
a(dp307
S'bootloader'
p308
(dp309
S'extended_fuses'
p310
S'0xf8'
p311
sS'high_fuses'
p312
S'0xdd'
p313
sS'low_fuses'
p314
S'0xff'
p315
sS'lock_bits'
p316
S'0xcf'
p317
sS'file'
p318
S'ATmegaBOOT_168_diecimila.hex'
p319
sS'path'
p320
S'atmega'
p321
sS'unlock_bits'
p322
S'0xff'
p323
ssS'upload'
p324
(dp325
S'speed'
p326
S'19200'
p327
sS'maximum_size'
p328
S'14336'
p329
sS'protocol'
p330
S'arduino'
p331
ssS'build'
p332
(dp333
S'core'
p334
S'arduino'
p335
sS'mcu'
p336
S'atmega168'
p337
sS'f_cpu'
p338
S'16000000L'
p339
sS'variant'
p340
S'eightanaloginputs'
p341
ssS'name'
p342
S'Arduino Nano w/ ATmega168'
p343
sg183
S'/usr/share/arduino/hardware/arduino'
p344
saa(lp345
S'mega2560'
p346
a(dp347
S'bootloader'
p348
(dp349
S'extended_fuses'
p350
S'0xFD'
p351
sS'high_fuses'
p352
S'0xD8'
p353
sS'low_fuses'
p354
S'0xFF'
p355
sS'lock_bits'
p356
S'0xcf'
p357
sS'file'
p358
S'stk500boot_v2_mega2560.hex'
p359
sS'path'
p360
S'stk500v2'
p361
sS'unlock_bits'
p362
S'0xff'
p363
ssS'upload'
p364
(dp365
S'speed'
p366
S'115200'
p367
sS'maximum_size'
p368
S'258048'
p369
sS'protocol'
p370
S'wiring'
p371
ssS'build'
p372
(dp373
S'core'
p374
S'arduino'
p375
sS'mcu'
p376
S'atmega2560'
p377
sS'f_cpu'
p378
S'16000000L'
p379
sS'variant'
p380
S'mega'
p381
ssS'name'
p382
S'Arduino Mega 2560 or Mega ADK'
p383
sg183
S'/usr/share/arduino/hardware/arduino'
p384
saa(lp385
S'mega'
p386
a(dp387
S'bootloader'
p388
(dp389
S'extended_fuses'
p390
S'0xF5'
p391
sS'high_fuses'
p392
S'0xDA'
p393
sS'low_fuses'
p394
S'0xFF'
p395
sS'lock_bits'
p396
S'0xcf'
p397
sS'file'
p398
S'ATmegaBOOT_168_atmega1280.hex'
p399
sS'path'
p400
S'atmega'
p401
sS'unlock_bits'
p402
S'0xff'
p403
ssS'upload'
p404
(dp405
S'speed'
p406
S'57600'
p407
sS'maximum_size'
p408
S'126976'
p409
sS'protocol'
p410
S'arduino'
p411
ssS'build'
p412
(dp413
S'core'
p414
S'arduino'
p415
sS'mcu'
p416
S'atmega1280'
p417
sS'f_cpu'
p418
S'16000000L'
p419
sS'variant'
p420
S'mega'
p421
ssS'name'
p422
S'Arduino Mega (ATmega1280)'
p423
sg183
S'/usr/share/arduino/hardware/arduino'
p424
saa(lp425
S'leonardo'
p426
a(dp427
S'bootloader'
p428
(dp429
S'extended_fuses'
p430
S'0xcb'
p431
sS'high_fuses'
p432
S'0xd8'
p433
sS'low_fuses'
p434
S'0xff'
p435
sS'lock_bits'
p436
S'0xef'
p437
sS'file'
p438
S'Caterina-Leonardo.hex'
p439
sS'path'
p440
S'caterina'
p441
sS'unlock_bits'
p442
S'0xff'
p443
ssS'upload'
p444
(dp445
S'speed'
p446
S'57600'
p447
sS'maximum_size'
p448
S'28672'
p449
sS'protocol'
p450
S'avr109'
p451
sS'disable_flushing'
p452
S'true'
p453
ssS'build'
p454
(dp455
S'core'
p456
S'arduino'
p457
sS'f_cpu'
p458
S'16000000L'
p459
sS'vid'
p460
S'0x2341'
p461
sS'pid'
p462
S'0x8036'
p463
sS'variant'
p464
S'leonardo'
p465
sS'mcu'
p466
S'atmega32u4'
p467
ssS'name'
p468
S'Arduino Leonardo'
p469
sg183
S'/usr/share/arduino/hardware/arduino'
p470
saa(lp471
S'esplora'
p472
a(dp473
S'bootloader'
p474
(dp475
S'extended_fuses'
p476
S'0xcb'
p477
sS'high_fuses'
p478
S'0xd8'
p479
sS'low_fuses'
p480
S'0xff'
p481
sS'lock_bits'
p482
S'0xef'
p483
sS'file'
p484
S'Caterina-Esplora.hex'
p485
sS'path'
p486
S'caterina'
p487
sS'unlock_bits'
p488
S'0xff'
p489
ssS'upload'
p490
(dp491
S'speed'
p492
S'57600'
p493
sS'maximum_size'
p494
S'28672'
p495
sS'protocol'
p496
S'avr109'
p497
sS'disable_flushing'
p498
S'true'
p499
ssS'build'
p500
(dp501
S'core'
p502
S'arduino'
p503
sS'f_cpu'
p504
S'16000000L'
p505
sS'vid'
p506
S'0x2341'
p507
sS'pid'
p508
S'0x803C'
p509
sS'variant'
p510
S'leonardo'
p511
sS'mcu'
p512
S'atmega32u4'
p513
ssS'name'
p514
S'Arduino Esplora'
p515
sg183
S'/usr/share/arduino/hardware/arduino'
p516
saa(lp517
S'micro'
p518
a(dp519
S'bootloader'
p520
(dp521
S'extended_fuses'
p522
S'0xcb'
p523
sS'high_fuses'
p524
S'0xd8'
p525
sS'low_fuses'
p526
S'0xff'
p527
sS'lock_bits'
p528
S'0xef'
p529
sS'file'
p530
S'Caterina-Micro.hex'
p531
sS'path'
p532
S'caterina'
p533
sS'unlock_bits'
p534
S'0xff'
p535
ssS'upload'
p536
(dp537
S'speed'
p538
S'57600'
p539
sS'maximum_size'
p540
S'28672'
p541
sS'protocol'
p542
S'avr109'
p543
sS'disable_flushing'
p544
S'true'
p545
ssS'build'
p546
(dp547
S'core'
p548
S'arduino'
p549
sS'f_cpu'
p550
S'16000000L'
p551
sS'vid'
p552
S'0x2341'
p553
sS'pid'
p554
S'0x8037'
p555
sS'variant'
p556
S'micro'
p557
sS'mcu'
p558
S'atmega32u4'
p559
ssS'name'
p560
S'Arduino Micro'
p561
sg183
S'/usr/share/arduino/hardware/arduino'
p562
saa(lp563
S'mini328'
p564
a(dp565
S'bootloader'
p566
(dp567
S'extended_fuses'
p568
S'0xfd'
p569
sS'high_fuses'
p570
S'0xd8'
p571
sS'low_fuses'
p572
S'0xff'
p573
sS'lock_bits'
p574
S'0xcf'
p575
sS'file'
p576
S'optiboot_atmega328-Mini.hex'
p577
sS'path'
p578
S'optiboot'
p579
sS'unlock_bits'
p580
S'0xff'
p581
ssS'upload'
p582
(dp583
S'speed'
p584
S'115200'
p585
sS'maximum_size'
p586
S'28672'
p587
sS'protocol'
p588
S'arduino'
p589
ssS'build'
p590
(dp591
S'core'
p592
S'arduino'
p593
sS'mcu'
p594
S'atmega328p'
p595
sS'f_cpu'
p596
S'16000000L'
p597
sS'variant'
p598
S'eightanaloginputs'
p599
ssS'name'
p600
S'Arduino Mini w/ ATmega328'
p601
sg183
S'/usr/share/arduino/hardware/arduino'
p602
saa(lp603
S'mini'
p604
a(dp605
S'bootloader'
p606
(dp607
S'extended_fuses'
p608
S'0xf8'
p609
sS'high_fuses'
p610
S'0xdd'
p611
sS'low_fuses'
p612
S'0xff'
p613
sS'lock_bits'
p614
S'0xcf'
p615
sS'file'
p616
S'ATmegaBOOT_168_ng.hex'
p617
sS'path'
p618
S'atmega'
p619
sS'unlock_bits'
p620
S'0xff'
p621
ssS'upload'
p622
(dp623
S'speed'
p624
S'19200'
p625
sS'maximum_size'
p626
S'14336'
p627
sS'protocol'
p628
S'arduino'
p629
ssS'build'
p630
(dp631
S'core'
p632
S'arduino'
p633
sS'mcu'
p634
S'atmega168'
p635
sS'f_cpu'
p636
S'16000000L'
p637
sS'variant'
p638
S'eightanaloginputs'
p639
ssS'name'
p640
S'Arduino Mini w/ ATmega168'
p641
sg183
S'/usr/share/arduino/hardware/arduino'
p642
saa(lp643
S'ethernet'
p644
a(dp645
S'bootloader'
p646
(dp647
S'extended_fuses'
p648
S'0xfd'
p649
sS'high_fuses'
p650
S'0xde'
p651
sS'low_fuses'
p652
S'0xff'
p653
sS'lock_bits'
p654
S'0xcf'
p655
sS'file'
p656
S'optiboot_atmega328.hex'
p657
sS'path'
p658
S'optiboot'
p659
sS'unlock_bits'
p660
S'0xff'
p661
ssS'upload'
p662
(dp663
S'speed'
p664
S'115200'
p665
sS'maximum_size'
p666
S'32256'
p667
sS'protocol'
p668
S'arduino'
p669
ssS'build'
p670
(dp671
S'f_cpu'
p672
S'16000000L'
p673
sS'mcu'
p674
S'atmega328p'
p675
sS'variant'
p676
S'standard'
p677
sS'core'
p678
S'arduino'
p679
ssS'name'
p680
S'Arduino Ethernet'
p681
sg183
S'/usr/share/arduino/hardware/arduino'
p682
saa(lp683
S'fio'
p684
a(dp685
S'bootloader'
p686
(dp687
S'extended_fuses'
p688
S'0xfd'
p689
sS'high_fuses'
p690
S'0xDA'
p691
sS'low_fuses'
p692
S'0xFF'
p693
sS'lock_bits'
p694
S'0xcf'
p695
sS'file'
p696
S'ATmegaBOOT_168_atmega328_pro_8MHz.hex'
p697
sS'path'
p698
S'arduino:atmega'
p699
sS'unlock_bits'
p700
S'0xff'
p701
ssS'upload'
p702
(dp703
S'speed'
p704
S'57600'
p705
sS'maximum_size'
p706
S'30720'
p707
sS'protocol'
p708
S'arduino'
p709
ssS'build'
p710
(dp711
S'core'
p712
S'arduino'
p713
sS'mcu'
p714
S'atmega328p'
p715
sS'f_cpu'
p716
S'8000000L'
p717
sS'variant'
p718
S'eightanaloginputs'
p719
ssS'name'
p720
S'Arduino Fio'
p721
sg183
S'/usr/share/arduino/hardware/arduino'
p722
saa(lp723
S'bt328'
p724
a(dp725
S'bootloader'
p726
(dp727
S'extended_fuses'
p728
S'0xfd'
p729
sS'high_fuses'
p730
S'0xd8'
p731
sS'low_fuses'
p732
S'0xff'
p733
sS'lock_bits'
p734
S'0xcf'
p735
sS'file'
p736
S'ATmegaBOOT_168_atmega328_bt.hex'
p737
sS'path'
p738
S'bt'
p739
sS'unlock_bits'
p740
S'0xff'
p741
ssS'upload'
p742
(dp743
S'speed'
p744
S'19200'
p745
sS'maximum_size'
p746
S'28672'
p747
sS'protocol'
p748
S'arduino'
p749
sS'disable_flushing'
p750
S'true'
p751
ssS'build'
p752
(dp753
S'core'
p754
S'arduino'
p755
sS'mcu'
p756
S'atmega328p'
p757
sS'f_cpu'
p758
S'16000000L'
p759
sS'variant'
p760
S'eightanaloginputs'
p761
ssS'name'
p762
S'Arduino BT w/ ATmega328'
p763
sg183
S'/usr/share/arduino/hardware/arduino'
p764
saa(lp765
S'bt'
p766
a(dp767
S'bootloader'
p768
(dp769
S'extended_fuses'
p770
S'0xf8'
p771
sS'high_fuses'
p772
S'0xdd'
p773
sS'low_fuses'
p774
S'0xff'
p775
sS'lock_bits'
p776
S'0xcf'
p777
sS'file'
p778
S'ATmegaBOOT_168.hex'
p779
sS'path'
p780
S'bt'
p781
sS'unlock_bits'
p782
S'0xff'
p783
ssS'upload'
p784
(dp785
S'speed'
p786
S'19200'
p787
sS'maximum_size'
p788
S'14336'
p789
sS'protocol'
p790
S'arduino'
p791
sS'disable_flushing'
p792
S'true'
p793
ssS'build'
p794
(dp795
S'core'
p796
S'arduino'
p797
sS'mcu'
p798
S'atmega168'
p799
sS'f_cpu'
p800
S'16000000L'
p801
sS'variant'
p802
S'eightanaloginputs'
p803
ssS'name'
p804
S'Arduino BT w/ ATmega168'
p805
sg183
S'/usr/share/arduino/hardware/arduino'
p806
saa(lp807
S'LilyPadUSB'
p808
a(dp809
S'bootloader'
p810
(dp811
S'extended_fuses'
p812
S'0xce'
p813
sS'high_fuses'
p814
S'0xd8'
p815
sS'low_fuses'
p816
S'0xff'
p817
sS'lock_bits'
p818
S'0xef'
p819
sS'file'
p820
S'Caterina-LilyPadUSB.hex'
p821
sS'path'
p822
S'caterina-LilyPadUSB'
p823
sS'unlock_bits'
p824
S'0xff'
p825
ssS'upload'
p826
(dp827
S'speed'
p828
S'57600'
p829
sS'maximum_size'
p830
S'28672'
p831
sS'protocol'
p832
S'avr109'
p833
sS'disable_flushing'
p834
S'true'
p835
ssS'build'
p836
(dp837
S'core'
p838
S'arduino'
p839
sS'f_cpu'
p840
S'8000000L'
p841
sS'vid'
p842
S'0x1B4F'
p843
sS'pid'
p844
S'0x9208'
p845
sS'variant'
p846
S'leonardo'
p847
sS'mcu'
p848
S'atmega32u4'
p849
ssS'name'
p850
S'LilyPad Arduino USB'
p851
sg183
S'/usr/share/arduino/hardware/arduino'
p852
saa(lp853
S'lilypad328'
p854
a(dp855
S'bootloader'
p856
(dp857
S'extended_fuses'
p858
S'0xfd'
p859
sS'high_fuses'
p860
S'0xDA'
p861
sS'low_fuses'
p862
S'0xFF'
p863
sS'lock_bits'
p864
S'0xcf'
p865
sS'file'
p866
S'ATmegaBOOT_168_atmega328_pro_8MHz.hex'
p867
sS'path'
p868
S'atmega'
p869
sS'unlock_bits'
p870
S'0xff'
p871
ssS'upload'
p872
(dp873
S'speed'
p874
S'57600'
p875
sS'maximum_size'
p876
S'30720'
p877
sS'protocol'
p878
S'arduino'
p879
ssS'build'
p880
(dp881
S'core'
p882
S'arduino'
p883
sS'mcu'
p884
S'atmega328p'
p885
sS'f_cpu'
p886
S'8000000L'
p887
sS'variant'
p888
S'standard'
p889
ssS'name'
p890
S'LilyPad Arduino w/ ATmega328'
p891
sg183
S'/usr/share/arduino/hardware/arduino'
p892
saa(lp893
S'lilypad'
p894
a(dp895
S'bootloader'
p896
(dp897
S'extended_fuses'
p898
S'0xf8'
p899
sS'high_fuses'
p900
S'0xdd'
p901
sS'low_fuses'
p902
S'0xe2'
p903
sS'lock_bits'
p904
S'0xcf'
p905
sS'file'
p906
S'LilyPadBOOT_168.hex'
p907
sS'path'
p908
S'lilypad'
p909
sS'unlock_bits'
p910
S'0xff'
p911
ssS'upload'
p912
(dp913
S'speed'
p914
S'19200'
p915
sS'maximum_size'
p916
S'14336'
p917
sS'protocol'
p918
S'arduino'
p919
ssS'build'
p920
(dp921
S'core'
p922
S'arduino'
p923
sS'mcu'
p924
S'atmega168'
p925
sS'f_cpu'
p926
S'8000000L'
p927
sS'variant'
p928
S'standard'
p929
ssS'name'
p930
S'LilyPad Arduino w/ ATmega168'
p931
sg183
S'/usr/share/arduino/hardware/arduino'
p932
saa(lp933
S'pro5v328'
p934
a(dp935
S'bootloader'
p936
(dp937
S'extended_fuses'
p938
S'0xfd'
p939
sS'high_fuses'
p940
S'0xDA'
p941
sS'low_fuses'
p942
S'0xFF'
p943
sS'lock_bits'
p944
S'0xcf'
p945
sS'file'
p946
S'ATmegaBOOT_168_atmega328.hex'
p947
sS'path'
p948
S'atmega'
p949
sS'unlock_bits'
p950
S'0xff'
p951
ssS'upload'
p952
(dp953
S'speed'
p954
S'57600'
p955
sS'maximum_size'
p956
S'30720'
p957
sS'protocol'
p958
S'arduino'
p959
ssS'build'
p960
(dp961
S'core'
p962
S'arduino'
p963
sS'mcu'
p964
S'atmega328p'
p965
sS'f_cpu'
p966
S'16000000L'
p967
sS'variant'
p968
S'standard'
p969
ssS'name'
p970
S'Arduino Pro or Pro Mini (5V, 16 MHz) w/ ATmega328'
p971
sg183
S'/usr/share/arduino/hardware/arduino'
p972
saa(lp973
S'pro5v'
p974
a(dp975
S'bootloader'
p976
(dp977
S'extended_fuses'
p978
S'0xf8'
p979
sS'high_fuses'
p980
S'0xdd'
p981
sS'low_fuses'
p982
S'0xff'
p983
sS'lock_bits'
p984
S'0xcf'
p985
sS'file'
p986
S'ATmegaBOOT_168_diecimila.hex'
p987
sS'path'
p988
S'atmega'
p989
sS'unlock_bits'
p990
S'0xff'
p991
ssS'upload'
p992
(dp993
S'speed'
p994
S'19200'
p995
sS'maximum_size'
p996
S'14336'
p997
sS'protocol'
p998
S'arduino'
p999
ssS'build'
p1000
(dp1001
S'core'
p1002
S'arduino'
p1003
sS'mcu'
p1004
S'atmega168'
p1005
sS'f_cpu'
p1006
S'16000000L'
p1007
sS'variant'
p1008
S'standard'
p1009
ssS'name'
p1010
S'Arduino Pro or Pro Mini (5V, 16 MHz) w/ ATmega168'
p1011
sg183
S'/usr/share/arduino/hardware/arduino'
p1012
saa(lp1013
S'pro328'
p1014
a(dp1015
S'bootloader'
p1016
(dp1017
S'extended_fuses'
p1018
S'0xfd'
p1019
sS'high_fuses'
p1020
S'0xDA'
p1021
sS'low_fuses'
p1022
S'0xFF'
p1023
sS'lock_bits'
p1024
S'0xcf'
p1025
sS'file'
p1026
S'ATmegaBOOT_168_atmega328_pro_8MHz.hex'
p1027
sS'path'
p1028
S'atmega'
p1029
sS'unlock_bits'
p1030
S'0xff'
p1031
ssS'upload'
p1032
(dp1033
S'speed'
p1034
S'57600'
p1035
sS'maximum_size'
p1036
S'30720'
p1037
sS'protocol'
p1038
S'arduino'
p1039
ssS'build'
p1040
(dp1041
S'core'
p1042
S'arduino'
p1043
sS'mcu'
p1044
S'atmega328p'
p1045
sS'f_cpu'
p1046
S'8000000L'
p1047
sS'variant'
p1048
S'standard'
p1049
ssS'name'
p1050
S'Arduino Pro or Pro Mini (3.3V, 8 MHz) w/ ATmega328'
p1051
sg183
S'/usr/share/arduino/hardware/arduino'
p1052
saa(lp1053
S'pro'
p1054
a(dp1055
S'bootloader'
p1056
(dp1057
S'extended_fuses'
p1058
S'0xf8'
p1059
sS'high_fuses'
p1060
S'0xdd'
p1061
sS'low_fuses'
p1062
S'0xc6'
p1063
sS'lock_bits'
p1064
S'0xcf'
p1065
sS'file'
p1066
S'ATmegaBOOT_168_pro_8MHz.hex'
p1067
sS'path'
p1068
S'atmega'
p1069
sS'unlock_bits'
p1070
S'0xff'
p1071
ssS'upload'
p1072
(dp1073
S'speed'
p1074
S'19200'
p1075
sS'maximum_size'
p1076
S'14336'
p1077
sS'protocol'
p1078
S'arduino'
p1079
ssS'build'
p1080
(dp1081
S'core'
p1082
S'arduino'
p1083
sS'mcu'
p1084
S'atmega168'
p1085
sS'f_cpu'
p1086
S'8000000L'
p1087
sS'variant'
p1088
S'standard'
p1089
ssS'name'
p1090
S'Arduino Pro or Pro Mini (3.3V, 8 MHz) w/ ATmega168'
p1091
sg183
S'/usr/share/arduino/hardware/arduino'
p1092
saa(lp1093
S'atmega168'
p1094
a(dp1095
S'bootloader'
p1096
(dp1097
S'extended_fuses'
p1098
S'0xf8'
p1099
sS'high_fuses'
p1100
S'0xdd'
p1101
sS'low_fuses'
p1102
S'0xff'
p1103
sS'lock_bits'
p1104
S'0xcf'
p1105
sS'file'
p1106
S'ATmegaBOOT_168_ng.hex'
p1107
sS'path'
p1108
S'atmega'
p1109
sS'unlock_bits'
p1110
S'0xff'
p1111
ssS'upload'
p1112
(dp1113
S'speed'
p1114
S'19200'
p1115
sS'maximum_size'
p1116
S'14336'
p1117
sS'protocol'
p1118
S'arduino'
p1119
ssS'build'
p1120
(dp1121
S'core'
p1122
S'arduino'
p1123
sS'mcu'
p1124
S'atmega168'
p1125
sS'f_cpu'
p1126
S'16000000L'
p1127
sS'variant'
p1128
S'standard'
p1129
ssS'name'
p1130
S'Arduino NG or older w/ ATmega168'
p1131
sg183
S'/usr/share/arduino/hardware/arduino'
p1132
saa(lp1133
S'atmega8'
p1134
a(dp1135
S'bootloader'
p1136
(dp1137
S'high_fuses'
p1138
S'0xca'
p1139
sS'low_fuses'
p1140
S'0xdf'
p1141
sS'lock_bits'
p1142
S'0xcf'
p1143
sS'file'
p1144
S'ATmegaBOOT-prod-firmware-2009-11-07.hex'
p1145
sS'path'
p1146
S'atmega8'
p1147
sS'unlock_bits'
p1148
S'0xff'
p1149
ssS'upload'
p1150
(dp1151
S'speed'
p1152
S'19200'
p1153
sS'maximum_size'
p1154
S'7168'
p1155
sS'protocol'
p1156
S'arduino'
p1157
ssS'build'
p1158
(dp1159
S'core'
p1160
S'arduino'
p1161
sS'mcu'
p1162
S'atmega8'
p1163
sS'f_cpu'
p1164
S'16000000L'
p1165
sS'variant'
p1166
S'standard'
p1167
ssS'name'
p1168
S'Arduino NG or older w/ ATmega8'
p1169
sg183
S'/usr/share/arduino/hardware/arduino'
p1170
saa(lp1171
S'robotControl'
p1172
a(dp1173
S'bootloader'
p1174
(dp1175
S'extended_fuses'
p1176
S'0xcb'
p1177
sS'high_fuses'
p1178
S'0xd8'
p1179
sS'low_fuses'
p1180
S'0xff'
p1181
sS'lock_bits'
p1182
S'0xef'
p1183
sS'file'
p1184
S'Caterina-Robot-Control.hex'
p1185
sS'path'
p1186
S'caterina-Arduino_Robot'
p1187
sS'unlock_bits'
p1188
S'0xff'
p1189
ssS'upload'
p1190
(dp1191
S'speed'
p1192
S'57600'
p1193
sS'maximum_size'
p1194
S'28672'
p1195
sS'protocol'
p1196
S'avr109'
p1197
sS'disable_flushing'
p1198
S'true'
p1199
ssS'build'
p1200
(dp1201
S'core'
p1202
S'robot'
p1203
sS'f_cpu'
p1204
S'16000000L'
p1205
sS'vid'
p1206
S'0x2341'
p1207
sS'pid'
p1208
S'0x8038'
p1209
sS'variant'
p1210
S'robot_control'
p1211
sS'mcu'
p1212
S'atmega32u4'
p1213
ssS'name'
p1214
S'Arduino Robot Control'
p1215
sg183
S'/usr/share/arduino/hardware/arduino'
p1216
saa(lp1217
S'robotMotor'
p1218
a(dp1219
S'bootloader'
p1220
(dp1221
S'extended_fuses'
p1222
S'0xcb'
p1223
sS'high_fuses'
p1224
S'0xd8'
p1225
sS'low_fuses'
p1226
S'0xff'
p1227
sS'lock_bits'
p1228
S'0xef'
p1229
sS'file'
p1230
S'Caterina-Robot-Motor.hex'
p1231
sS'path'
p1232
S'caterina-Arduino_Robot'
p1233
sS'unlock_bits'
p1234
S'0xff'
p1235
ssS'upload'
p1236
(dp1237
S'speed'
p1238
S'57600'
p1239
sS'maximum_size'
p1240
S'28672'
p1241
sS'protocol'
p1242
S'avr109'
p1243
sS'disable_flushing'
p1244
S'true'
p1245
ssS'build'
p1246
(dp1247
S'core'
p1248
S'robot'
p1249
sS'f_cpu'
p1250
S'16000000L'
p1251
sS'vid'
p1252
S'0x2341'
p1253
sS'pid'
p1254
S'0x8039'
p1255
sS'variant'
p1256
S'robot_motor'
p1257
sS'mcu'
p1258
S'atmega32u4'
p1259
ssS'name'
p1260
S'Arduino Robot Motor'
p1261
sg183
S'/usr/share/arduino/hardware/arduino'
p1262
saatp1263
Rp1264
(dp1265
S'default'
p1266
S'uno'
p1267
sbtp1268
a(S'ldflags'
p1269
g2
(g3
g4
(lp1270
g6
aS'-Wl,-Os'
p1271
aS'-Wl,--gc-sections'
p1272
atp1273
Rp1274
tp1275
a.