(lp0
(S'cppflags'
p1
ccopy_reg
_reconstructor
p2
(cino.utils
SpaceList
p3
c__builtin__
list
p4
(lp5
S'-mmcu=atmega328p'
p6
aS'-DF_CPU=16000000L'
p7
aS'-DARDUINO=105'
p8
aS'-I/usr/share/arduino/hardware/arduino/cores/arduino'
p9
aS'-ffunction-sections'
p10
aS'-fdata-sections'
p11
aS'-g'
p12
aS'-Os'
p13
aS'-w'
p14
aS'-I/usr/share/arduino/hardware/arduino/variants/standard'
p15
aS'-I/usr/share/arduino/hardware/arduino/cores/arduino'
p16
aS'-I/usr/share/arduino/hardware/arduino/cores/arduino/avr-libc'
p17
aS'-Ilib/ros_lib'
p18
aS'-Ilib/ros_lib/nodelet'
p19
aS'-Ilib/ros_lib/controller_manager_msgs'
p20
aS'-Ilib/ros_lib/theora_image_transport'
p21
aS'-Ilib/ros_lib/rosserial_msgs'
p22
aS'-Ilib/ros_lib/std_srvs'
p23
aS'-Ilib/ros_lib/roscpp_tutorials'
p24
aS'-Ilib/ros_lib/rospy_tutorials'
p25
aS'-Ilib/ros_lib/visualization_msgs'
p26
aS'-Ilib/ros_lib/tf2_msgs'
p27
aS'-Ilib/ros_lib/rosserial_arduino'
p28
aS'-Ilib/ros_lib/std_msgs'
p29
aS'-Ilib/ros_lib/topic_tools'
p30
aS'-Ilib/ros_lib/nav_msgs'
p31
aS'-Ilib/ros_lib/tf'
p32
aS'-Ilib/ros_lib/laser_assembler'
p33
aS'-Ilib/ros_lib/ros'
p34
aS'-Ilib/ros_lib/turtle_actionlib'
p35
aS'-Ilib/ros_lib/motors'
p36
aS'-Ilib/ros_lib/sensor_msgs'
p37
aS'-Ilib/ros_lib/trajectory_msgs'
p38
aS'-Ilib/ros_lib/rosgraph_msgs'
p39
aS'-Ilib/ros_lib/tests'
p40
aS'-Ilib/ros_lib/control_msgs'
p41
aS'-Ilib/ros_lib/actionlib'
p42
aS'-Ilib/ros_lib/pcl_msgs'
p43
aS'-Ilib/ros_lib/diagnostic_msgs'
p44
aS'-Ilib/ros_lib/dynamic_reconfigure'
p45
aS'-Ilib/ros_lib/motor_control'
p46
aS'-Ilib/ros_lib/stereo_msgs'
p47
aS'-Ilib/ros_lib/polled_camera'
p48
aS'-Ilib/ros_lib/bond'
p49
aS'-Ilib/ros_lib/turtlesim'
p50
aS'-Ilib/ros_lib/control_toolbox'
p51
aS'-Ilib/ros_lib/roscpp'
p52
aS'-Ilib/ros_lib/actionlib_tutorials'
p53
aS'-Ilib/ros_lib/actionlib_msgs'
p54
aS'-Ilib/ros_lib/map_msgs'
p55
aS'-Ilib/ros_lib/shape_msgs'
p56
aS'-Ilib/ros_lib/gazebo_msgs'
p57
aS'-Ilib/ros_lib/smach_msgs'
p58
aS'-Ilib/ros_lib/geometry_msgs'
p59
aS'-Ilib/ros_lib/tests/time_test'
p60
aS'-Ilib/ros_lib/tests/array_test'
p61
aS'-Ilib/ros_lib/tests/float64_test'
p62
atp63
Rp64
tp65
a(S'arduino_variants_dir'
p66
S'/usr/share/arduino/hardware/arduino/variants'
p67
tp68
a(S'version.txt'
p69
S'/usr/share/arduino/lib/version.txt'
p70
tp71
a(S'used_libs'
p72
(lp73
S'/usr/share/arduino/hardware/arduino/cores/arduino'
p74
aS'lib/ros_lib'
p75
atp76
a(S'cc'
p77
S'/usr/share/arduino/hardware/tools/avr/bin/avr-gcc'
p78
tp79
a(S'make'
p80
S'/usr/share/arduino/hardware/tools/avr/bin/make'
p81
tp82
a(S'cflags'
p83
g2
(g3
g4
(lp84
tp85
Rp86
tp87
a(S'build_dir'
p88
S'.build/uno'
p89
tp90
a(S'arduino_core_dir'
p91
g74
tp92
a(S'boards.txt'
p93
(lp94
S'/usr/share/arduino/hardware/arduino/boards.txt'
p95
atp96
a(S'cxxflags'
p97
g2
(g3
g4
(lp98
S'-fno-exceptions'
p99
atp100
Rp101
tp102
a(S'cxx'
p103
S'/usr/share/arduino/hardware/tools/avr/bin/avr-g++'
p104
tp105
a(S'ar'
p106
S'/usr/share/arduino/hardware/tools/avr/bin/avr-ar'
p107
tp108
a(S'names'
p109
(dp110
S'cpp'
p111
S'%s.cpp'
p112
sS'obj'
p113
S'%s.o'
p114
sS'deps'
p115
S'%s.d'
p116
sS'lib'
p117
S'lib%s.a'
p118
stp119
a(S'deps'
p120
g2
(g3
g4
(lp121
S'.build/uno/src/dependencies.d'
p122
aS'.build/uno/arduino/dependencies.d'
p123
aS'.build/uno/ros_lib/dependencies.d'
p124
atp125
Rp126
tp127
a(S'arduino_libraries_dir'
p128
S'/usr/share/arduino/libraries'
p129
tp130
a(S'arduino_lib_version'
p131
g2
(cino.environment
Version
p132
c__builtin__
tuple
p133
(I1
I0
I5
tp134
tp135
Rp136
tp137
a(S'objcopy'
p138
S'/usr/share/arduino/hardware/tools/avr/bin/avr-objcopy'
p139
tp140
a(S'board_models'
p141
cino.environment
BoardModels
p142
((lp143
(lp144
S'uno'
p145
a(dp146
S'_coredir'
p147
S'/usr/share/arduino/hardware/arduino'
p148
sS'bootloader'
p149
(dp150
S'extended_fuses'
p151
S'0xfd'
p152
sS'high_fuses'
p153
S'0xde'
p154
sS'low_fuses'
p155
S'0xff'
p156
sS'lock_bits'
p157
S'0xcf'
p158
sS'file'
p159
S'optiboot_atmega328.hex'
p160
sS'path'
p161
S'optiboot'
p162
sS'unlock_bits'
p163
S'0xff'
p164
ssS'upload'
p165
(dp166
S'protocol'
p167
S'arduino'
p168
sS'maximum_size'
p169
S'32256'
p170
sS'speed'
p171
S'115200'
p172
ssS'name'
p173
S'Arduino Uno'
p174
sS'build'
p175
(dp176
S'core'
p177
S'arduino'
p178
sS'mcu'
p179
S'atmega328p'
p180
sS'f_cpu'
p181
S'16000000L'
p182
sS'variant'
p183
S'standard'
p184
ssaa(lp185
S'atmega328'
p186
a(dp187
g147
S'/usr/share/arduino/hardware/arduino'
p188
sS'bootloader'
p189
(dp190
S'extended_fuses'
p191
S'0xfd'
p192
sS'high_fuses'
p193
S'0xDA'
p194
sS'low_fuses'
p195
S'0xFF'
p196
sS'lock_bits'
p197
S'0xcf'
p198
sS'file'
p199
S'ATmegaBOOT_168_atmega328.hex'
p200
sS'path'
p201
S'atmega'
p202
sS'unlock_bits'
p203
S'0xff'
p204
ssS'upload'
p205
(dp206
S'protocol'
p207
S'arduino'
p208
sS'maximum_size'
p209
S'30720'
p210
sS'speed'
p211
S'57600'
p212
ssS'name'
p213
S'Arduino Duemilanove w/ ATmega328'
p214
sS'build'
p215
(dp216
S'core'
p217
S'arduino'
p218
sS'mcu'
p219
S'atmega328p'
p220
sS'f_cpu'
p221
S'16000000L'
p222
sS'variant'
p223
S'standard'
p224
ssaa(lp225
S'diecimila'
p226
a(dp227
g147
S'/usr/share/arduino/hardware/arduino'
p228
sS'bootloader'
p229
(dp230
S'extended_fuses'
p231
S'0xf8'
p232
sS'high_fuses'
p233
S'0xdd'
p234
sS'low_fuses'
p235
S'0xff'
p236
sS'lock_bits'
p237
S'0xcf'
p238
sS'file'
p239
S'ATmegaBOOT_168_diecimila.hex'
p240
sS'path'
p241
S'atmega'
p242
sS'unlock_bits'
p243
S'0xff'
p244
ssS'upload'
p245
(dp246
S'protocol'
p247
S'arduino'
p248
sS'maximum_size'
p249
S'14336'
p250
sS'speed'
p251
S'19200'
p252
ssS'name'
p253
S'Arduino Diecimila or Duemilanove w/ ATmega168'
p254
sS'build'
p255
(dp256
S'core'
p257
S'arduino'
p258
sS'mcu'
p259
S'atmega168'
p260
sS'f_cpu'
p261
S'16000000L'
p262
sS'variant'
p263
S'standard'
p264
ssaa(lp265
S'nano328'
p266
a(dp267
g147
S'/usr/share/arduino/hardware/arduino'
p268
sS'bootloader'
p269
(dp270
S'extended_fuses'
p271
S'0xfd'
p272
sS'high_fuses'
p273
S'0xDA'
p274
sS'low_fuses'
p275
S'0xFF'
p276
sS'lock_bits'
p277
S'0xcf'
p278
sS'file'
p279
S'ATmegaBOOT_168_atmega328.hex'
p280
sS'path'
p281
S'atmega'
p282
sS'unlock_bits'
p283
S'0xff'
p284
ssS'upload'
p285
(dp286
S'protocol'
p287
S'arduino'
p288
sS'maximum_size'
p289
S'30720'
p290
sS'speed'
p291
S'57600'
p292
ssS'name'
p293
S'Arduino Nano w/ ATmega328'
p294
sS'build'
p295
(dp296
S'core'
p297
S'arduino'
p298
sS'mcu'
p299
S'atmega328p'
p300
sS'f_cpu'
p301
S'16000000L'
p302
sS'variant'
p303
S'eightanaloginputs'
p304
ssaa(lp305
S'nano'
p306
a(dp307
g147
S'/usr/share/arduino/hardware/arduino'
p308
sS'bootloader'
p309
(dp310
S'extended_fuses'
p311
S'0xf8'
p312
sS'high_fuses'
p313
S'0xdd'
p314
sS'low_fuses'
p315
S'0xff'
p316
sS'lock_bits'
p317
S'0xcf'
p318
sS'file'
p319
S'ATmegaBOOT_168_diecimila.hex'
p320
sS'path'
p321
S'atmega'
p322
sS'unlock_bits'
p323
S'0xff'
p324
ssS'upload'
p325
(dp326
S'protocol'
p327
S'arduino'
p328
sS'maximum_size'
p329
S'14336'
p330
sS'speed'
p331
S'19200'
p332
ssS'name'
p333
S'Arduino Nano w/ ATmega168'
p334
sS'build'
p335
(dp336
S'core'
p337
S'arduino'
p338
sS'mcu'
p339
S'atmega168'
p340
sS'f_cpu'
p341
S'16000000L'
p342
sS'variant'
p343
S'eightanaloginputs'
p344
ssaa(lp345
S'mega2560'
p346
a(dp347
g147
S'/usr/share/arduino/hardware/arduino'
p348
sS'bootloader'
p349
(dp350
S'extended_fuses'
p351
S'0xFD'
p352
sS'high_fuses'
p353
S'0xD8'
p354
sS'low_fuses'
p355
S'0xFF'
p356
sS'lock_bits'
p357
S'0xcf'
p358
sS'file'
p359
S'stk500boot_v2_mega2560.hex'
p360
sS'path'
p361
S'stk500v2'
p362
sS'unlock_bits'
p363
S'0xff'
p364
ssS'upload'
p365
(dp366
S'protocol'
p367
S'wiring'
p368
sS'maximum_size'
p369
S'258048'
p370
sS'speed'
p371
S'115200'
p372
ssS'name'
p373
S'Arduino Mega 2560 or Mega ADK'
p374
sS'build'
p375
(dp376
S'core'
p377
S'arduino'
p378
sS'mcu'
p379
S'atmega2560'
p380
sS'f_cpu'
p381
S'16000000L'
p382
sS'variant'
p383
S'mega'
p384
ssaa(lp385
S'mega'
p386
a(dp387
g147
S'/usr/share/arduino/hardware/arduino'
p388
sS'bootloader'
p389
(dp390
S'extended_fuses'
p391
S'0xF5'
p392
sS'high_fuses'
p393
S'0xDA'
p394
sS'low_fuses'
p395
S'0xFF'
p396
sS'lock_bits'
p397
S'0xcf'
p398
sS'file'
p399
S'ATmegaBOOT_168_atmega1280.hex'
p400
sS'path'
p401
S'atmega'
p402
sS'unlock_bits'
p403
S'0xff'
p404
ssS'upload'
p405
(dp406
S'protocol'
p407
S'arduino'
p408
sS'maximum_size'
p409
S'126976'
p410
sS'speed'
p411
S'57600'
p412
ssS'name'
p413
S'Arduino Mega (ATmega1280)'
p414
sS'build'
p415
(dp416
S'core'
p417
S'arduino'
p418
sS'mcu'
p419
S'atmega1280'
p420
sS'f_cpu'
p421
S'16000000L'
p422
sS'variant'
p423
S'mega'
p424
ssaa(lp425
S'leonardo'
p426
a(dp427
g147
S'/usr/share/arduino/hardware/arduino'
p428
sS'bootloader'
p429
(dp430
S'extended_fuses'
p431
S'0xcb'
p432
sS'high_fuses'
p433
S'0xd8'
p434
sS'low_fuses'
p435
S'0xff'
p436
sS'lock_bits'
p437
S'0xef'
p438
sS'file'
p439
S'Caterina-Leonardo.hex'
p440
sS'path'
p441
S'caterina'
p442
sS'unlock_bits'
p443
S'0xff'
p444
ssS'upload'
p445
(dp446
S'protocol'
p447
S'avr109'
p448
sS'maximum_size'
p449
S'28672'
p450
sS'speed'
p451
S'57600'
p452
sS'disable_flushing'
p453
S'true'
p454
ssS'name'
p455
S'Arduino Leonardo'
p456
sS'build'
p457
(dp458
S'core'
p459
S'arduino'
p460
sS'f_cpu'
p461
S'16000000L'
p462
sS'vid'
p463
S'0x2341'
p464
sS'pid'
p465
S'0x8036'
p466
sS'variant'
p467
S'leonardo'
p468
sS'mcu'
p469
S'atmega32u4'
p470
ssaa(lp471
S'esplora'
p472
a(dp473
g147
S'/usr/share/arduino/hardware/arduino'
p474
sS'bootloader'
p475
(dp476
S'extended_fuses'
p477
S'0xcb'
p478
sS'high_fuses'
p479
S'0xd8'
p480
sS'low_fuses'
p481
S'0xff'
p482
sS'lock_bits'
p483
S'0xef'
p484
sS'file'
p485
S'Caterina-Esplora.hex'
p486
sS'path'
p487
S'caterina'
p488
sS'unlock_bits'
p489
S'0xff'
p490
ssS'upload'
p491
(dp492
S'protocol'
p493
S'avr109'
p494
sS'maximum_size'
p495
S'28672'
p496
sS'speed'
p497
S'57600'
p498
sS'disable_flushing'
p499
S'true'
p500
ssS'name'
p501
S'Arduino Esplora'
p502
sS'build'
p503
(dp504
S'core'
p505
S'arduino'
p506
sS'f_cpu'
p507
S'16000000L'
p508
sS'vid'
p509
S'0x2341'
p510
sS'pid'
p511
S'0x803C'
p512
sS'variant'
p513
S'leonardo'
p514
sS'mcu'
p515
S'atmega32u4'
p516
ssaa(lp517
S'micro'
p518
a(dp519
g147
S'/usr/share/arduino/hardware/arduino'
p520
sS'bootloader'
p521
(dp522
S'extended_fuses'
p523
S'0xcb'
p524
sS'high_fuses'
p525
S'0xd8'
p526
sS'low_fuses'
p527
S'0xff'
p528
sS'lock_bits'
p529
S'0xef'
p530
sS'file'
p531
S'Caterina-Micro.hex'
p532
sS'path'
p533
S'caterina'
p534
sS'unlock_bits'
p535
S'0xff'
p536
ssS'upload'
p537
(dp538
S'protocol'
p539
S'avr109'
p540
sS'maximum_size'
p541
S'28672'
p542
sS'speed'
p543
S'57600'
p544
sS'disable_flushing'
p545
S'true'
p546
ssS'name'
p547
S'Arduino Micro'
p548
sS'build'
p549
(dp550
S'core'
p551
S'arduino'
p552
sS'f_cpu'
p553
S'16000000L'
p554
sS'vid'
p555
S'0x2341'
p556
sS'pid'
p557
S'0x8037'
p558
sS'variant'
p559
S'micro'
p560
sS'mcu'
p561
S'atmega32u4'
p562
ssaa(lp563
S'mini328'
p564
a(dp565
g147
S'/usr/share/arduino/hardware/arduino'
p566
sS'bootloader'
p567
(dp568
S'extended_fuses'
p569
S'0xfd'
p570
sS'high_fuses'
p571
S'0xd8'
p572
sS'low_fuses'
p573
S'0xff'
p574
sS'lock_bits'
p575
S'0xcf'
p576
sS'file'
p577
S'optiboot_atmega328-Mini.hex'
p578
sS'path'
p579
S'optiboot'
p580
sS'unlock_bits'
p581
S'0xff'
p582
ssS'upload'
p583
(dp584
S'protocol'
p585
S'arduino'
p586
sS'maximum_size'
p587
S'28672'
p588
sS'speed'
p589
S'115200'
p590
ssS'name'
p591
S'Arduino Mini w/ ATmega328'
p592
sS'build'
p593
(dp594
S'core'
p595
S'arduino'
p596
sS'mcu'
p597
S'atmega328p'
p598
sS'f_cpu'
p599
S'16000000L'
p600
sS'variant'
p601
S'eightanaloginputs'
p602
ssaa(lp603
S'mini'
p604
a(dp605
g147
S'/usr/share/arduino/hardware/arduino'
p606
sS'bootloader'
p607
(dp608
S'extended_fuses'
p609
S'0xf8'
p610
sS'high_fuses'
p611
S'0xdd'
p612
sS'low_fuses'
p613
S'0xff'
p614
sS'lock_bits'
p615
S'0xcf'
p616
sS'file'
p617
S'ATmegaBOOT_168_ng.hex'
p618
sS'path'
p619
S'atmega'
p620
sS'unlock_bits'
p621
S'0xff'
p622
ssS'upload'
p623
(dp624
S'protocol'
p625
S'arduino'
p626
sS'maximum_size'
p627
S'14336'
p628
sS'speed'
p629
S'19200'
p630
ssS'name'
p631
S'Arduino Mini w/ ATmega168'
p632
sS'build'
p633
(dp634
S'core'
p635
S'arduino'
p636
sS'mcu'
p637
S'atmega168'
p638
sS'f_cpu'
p639
S'16000000L'
p640
sS'variant'
p641
S'eightanaloginputs'
p642
ssaa(lp643
S'ethernet'
p644
a(dp645
g147
S'/usr/share/arduino/hardware/arduino'
p646
sS'bootloader'
p647
(dp648
S'extended_fuses'
p649
S'0xfd'
p650
sS'high_fuses'
p651
S'0xde'
p652
sS'low_fuses'
p653
S'0xff'
p654
sS'lock_bits'
p655
S'0xcf'
p656
sS'file'
p657
S'optiboot_atmega328.hex'
p658
sS'path'
p659
S'optiboot'
p660
sS'unlock_bits'
p661
S'0xff'
p662
ssS'upload'
p663
(dp664
S'protocol'
p665
S'arduino'
p666
sS'maximum_size'
p667
S'32256'
p668
sS'speed'
p669
S'115200'
p670
ssS'name'
p671
S'Arduino Ethernet'
p672
sS'build'
p673
(dp674
S'variant'
p675
S'standard'
p676
sS'mcu'
p677
S'atmega328p'
p678
sS'f_cpu'
p679
S'16000000L'
p680
sS'core'
p681
S'arduino'
p682
ssaa(lp683
S'fio'
p684
a(dp685
g147
S'/usr/share/arduino/hardware/arduino'
p686
sS'bootloader'
p687
(dp688
S'extended_fuses'
p689
S'0xfd'
p690
sS'high_fuses'
p691
S'0xDA'
p692
sS'low_fuses'
p693
S'0xFF'
p694
sS'lock_bits'
p695
S'0xcf'
p696
sS'file'
p697
S'ATmegaBOOT_168_atmega328_pro_8MHz.hex'
p698
sS'path'
p699
S'arduino:atmega'
p700
sS'unlock_bits'
p701
S'0xff'
p702
ssS'upload'
p703
(dp704
S'protocol'
p705
S'arduino'
p706
sS'maximum_size'
p707
S'30720'
p708
sS'speed'
p709
S'57600'
p710
ssS'name'
p711
S'Arduino Fio'
p712
sS'build'
p713
(dp714
S'core'
p715
S'arduino'
p716
sS'mcu'
p717
S'atmega328p'
p718
sS'f_cpu'
p719
S'8000000L'
p720
sS'variant'
p721
S'eightanaloginputs'
p722
ssaa(lp723
S'bt328'
p724
a(dp725
g147
S'/usr/share/arduino/hardware/arduino'
p726
sS'bootloader'
p727
(dp728
S'extended_fuses'
p729
S'0xfd'
p730
sS'high_fuses'
p731
S'0xd8'
p732
sS'low_fuses'
p733
S'0xff'
p734
sS'lock_bits'
p735
S'0xcf'
p736
sS'file'
p737
S'ATmegaBOOT_168_atmega328_bt.hex'
p738
sS'path'
p739
S'bt'
p740
sS'unlock_bits'
p741
S'0xff'
p742
ssS'upload'
p743
(dp744
S'protocol'
p745
S'arduino'
p746
sS'maximum_size'
p747
S'28672'
p748
sS'speed'
p749
S'19200'
p750
sS'disable_flushing'
p751
S'true'
p752
ssS'name'
p753
S'Arduino BT w/ ATmega328'
p754
sS'build'
p755
(dp756
S'core'
p757
S'arduino'
p758
sS'mcu'
p759
S'atmega328p'
p760
sS'f_cpu'
p761
S'16000000L'
p762
sS'variant'
p763
S'eightanaloginputs'
p764
ssaa(lp765
S'bt'
p766
a(dp767
g147
S'/usr/share/arduino/hardware/arduino'
p768
sS'bootloader'
p769
(dp770
S'extended_fuses'
p771
S'0xf8'
p772
sS'high_fuses'
p773
S'0xdd'
p774
sS'low_fuses'
p775
S'0xff'
p776
sS'lock_bits'
p777
S'0xcf'
p778
sS'file'
p779
S'ATmegaBOOT_168.hex'
p780
sS'path'
p781
S'bt'
p782
sS'unlock_bits'
p783
S'0xff'
p784
ssS'upload'
p785
(dp786
S'protocol'
p787
S'arduino'
p788
sS'maximum_size'
p789
S'14336'
p790
sS'speed'
p791
S'19200'
p792
sS'disable_flushing'
p793
S'true'
p794
ssS'name'
p795
S'Arduino BT w/ ATmega168'
p796
sS'build'
p797
(dp798
S'core'
p799
S'arduino'
p800
sS'mcu'
p801
S'atmega168'
p802
sS'f_cpu'
p803
S'16000000L'
p804
sS'variant'
p805
S'eightanaloginputs'
p806
ssaa(lp807
S'LilyPadUSB'
p808
a(dp809
g147
S'/usr/share/arduino/hardware/arduino'
p810
sS'bootloader'
p811
(dp812
S'extended_fuses'
p813
S'0xce'
p814
sS'high_fuses'
p815
S'0xd8'
p816
sS'low_fuses'
p817
S'0xff'
p818
sS'lock_bits'
p819
S'0xef'
p820
sS'file'
p821
S'Caterina-LilyPadUSB.hex'
p822
sS'path'
p823
S'caterina-LilyPadUSB'
p824
sS'unlock_bits'
p825
S'0xff'
p826
ssS'upload'
p827
(dp828
S'protocol'
p829
S'avr109'
p830
sS'maximum_size'
p831
S'28672'
p832
sS'speed'
p833
S'57600'
p834
sS'disable_flushing'
p835
S'true'
p836
ssS'name'
p837
S'LilyPad Arduino USB'
p838
sS'build'
p839
(dp840
S'core'
p841
S'arduino'
p842
sS'f_cpu'
p843
S'8000000L'
p844
sS'vid'
p845
S'0x1B4F'
p846
sS'pid'
p847
S'0x9208'
p848
sS'variant'
p849
S'leonardo'
p850
sS'mcu'
p851
S'atmega32u4'
p852
ssaa(lp853
S'lilypad328'
p854
a(dp855
g147
S'/usr/share/arduino/hardware/arduino'
p856
sS'bootloader'
p857
(dp858
S'extended_fuses'
p859
S'0xfd'
p860
sS'high_fuses'
p861
S'0xDA'
p862
sS'low_fuses'
p863
S'0xFF'
p864
sS'lock_bits'
p865
S'0xcf'
p866
sS'file'
p867
S'ATmegaBOOT_168_atmega328_pro_8MHz.hex'
p868
sS'path'
p869
S'atmega'
p870
sS'unlock_bits'
p871
S'0xff'
p872
ssS'upload'
p873
(dp874
S'protocol'
p875
S'arduino'
p876
sS'maximum_size'
p877
S'30720'
p878
sS'speed'
p879
S'57600'
p880
ssS'name'
p881
S'LilyPad Arduino w/ ATmega328'
p882
sS'build'
p883
(dp884
S'core'
p885
S'arduino'
p886
sS'mcu'
p887
S'atmega328p'
p888
sS'f_cpu'
p889
S'8000000L'
p890
sS'variant'
p891
S'standard'
p892
ssaa(lp893
S'lilypad'
p894
a(dp895
g147
S'/usr/share/arduino/hardware/arduino'
p896
sS'bootloader'
p897
(dp898
S'extended_fuses'
p899
S'0xf8'
p900
sS'high_fuses'
p901
S'0xdd'
p902
sS'low_fuses'
p903
S'0xe2'
p904
sS'lock_bits'
p905
S'0xcf'
p906
sS'file'
p907
S'LilyPadBOOT_168.hex'
p908
sS'path'
p909
S'lilypad'
p910
sS'unlock_bits'
p911
S'0xff'
p912
ssS'upload'
p913
(dp914
S'protocol'
p915
S'arduino'
p916
sS'maximum_size'
p917
S'14336'
p918
sS'speed'
p919
S'19200'
p920
ssS'name'
p921
S'LilyPad Arduino w/ ATmega168'
p922
sS'build'
p923
(dp924
S'core'
p925
S'arduino'
p926
sS'mcu'
p927
S'atmega168'
p928
sS'f_cpu'
p929
S'8000000L'
p930
sS'variant'
p931
S'standard'
p932
ssaa(lp933
S'pro5v328'
p934
a(dp935
g147
S'/usr/share/arduino/hardware/arduino'
p936
sS'bootloader'
p937
(dp938
S'extended_fuses'
p939
S'0xfd'
p940
sS'high_fuses'
p941
S'0xDA'
p942
sS'low_fuses'
p943
S'0xFF'
p944
sS'lock_bits'
p945
S'0xcf'
p946
sS'file'
p947
S'ATmegaBOOT_168_atmega328.hex'
p948
sS'path'
p949
S'atmega'
p950
sS'unlock_bits'
p951
S'0xff'
p952
ssS'upload'
p953
(dp954
S'protocol'
p955
S'arduino'
p956
sS'maximum_size'
p957
S'30720'
p958
sS'speed'
p959
S'57600'
p960
ssS'name'
p961
S'Arduino Pro or Pro Mini (5V, 16 MHz) w/ ATmega328'
p962
sS'build'
p963
(dp964
S'core'
p965
S'arduino'
p966
sS'mcu'
p967
S'atmega328p'
p968
sS'f_cpu'
p969
S'16000000L'
p970
sS'variant'
p971
S'standard'
p972
ssaa(lp973
S'pro5v'
p974
a(dp975
g147
S'/usr/share/arduino/hardware/arduino'
p976
sS'bootloader'
p977
(dp978
S'extended_fuses'
p979
S'0xf8'
p980
sS'high_fuses'
p981
S'0xdd'
p982
sS'low_fuses'
p983
S'0xff'
p984
sS'lock_bits'
p985
S'0xcf'
p986
sS'file'
p987
S'ATmegaBOOT_168_diecimila.hex'
p988
sS'path'
p989
S'atmega'
p990
sS'unlock_bits'
p991
S'0xff'
p992
ssS'upload'
p993
(dp994
S'protocol'
p995
S'arduino'
p996
sS'maximum_size'
p997
S'14336'
p998
sS'speed'
p999
S'19200'
p1000
ssS'name'
p1001
S'Arduino Pro or Pro Mini (5V, 16 MHz) w/ ATmega168'
p1002
sS'build'
p1003
(dp1004
S'core'
p1005
S'arduino'
p1006
sS'mcu'
p1007
S'atmega168'
p1008
sS'f_cpu'
p1009
S'16000000L'
p1010
sS'variant'
p1011
S'standard'
p1012
ssaa(lp1013
S'pro328'
p1014
a(dp1015
g147
S'/usr/share/arduino/hardware/arduino'
p1016
sS'bootloader'
p1017
(dp1018
S'extended_fuses'
p1019
S'0xfd'
p1020
sS'high_fuses'
p1021
S'0xDA'
p1022
sS'low_fuses'
p1023
S'0xFF'
p1024
sS'lock_bits'
p1025
S'0xcf'
p1026
sS'file'
p1027
S'ATmegaBOOT_168_atmega328_pro_8MHz.hex'
p1028
sS'path'
p1029
S'atmega'
p1030
sS'unlock_bits'
p1031
S'0xff'
p1032
ssS'upload'
p1033
(dp1034
S'protocol'
p1035
S'arduino'
p1036
sS'maximum_size'
p1037
S'30720'
p1038
sS'speed'
p1039
S'57600'
p1040
ssS'name'
p1041
S'Arduino Pro or Pro Mini (3.3V, 8 MHz) w/ ATmega328'
p1042
sS'build'
p1043
(dp1044
S'core'
p1045
S'arduino'
p1046
sS'mcu'
p1047
S'atmega328p'
p1048
sS'f_cpu'
p1049
S'8000000L'
p1050
sS'variant'
p1051
S'standard'
p1052
ssaa(lp1053
S'pro'
p1054
a(dp1055
g147
S'/usr/share/arduino/hardware/arduino'
p1056
sS'bootloader'
p1057
(dp1058
S'extended_fuses'
p1059
S'0xf8'
p1060
sS'high_fuses'
p1061
S'0xdd'
p1062
sS'low_fuses'
p1063
S'0xc6'
p1064
sS'lock_bits'
p1065
S'0xcf'
p1066
sS'file'
p1067
S'ATmegaBOOT_168_pro_8MHz.hex'
p1068
sS'path'
p1069
S'atmega'
p1070
sS'unlock_bits'
p1071
S'0xff'
p1072
ssS'upload'
p1073
(dp1074
S'protocol'
p1075
S'arduino'
p1076
sS'maximum_size'
p1077
S'14336'
p1078
sS'speed'
p1079
S'19200'
p1080
ssS'name'
p1081
S'Arduino Pro or Pro Mini (3.3V, 8 MHz) w/ ATmega168'
p1082
sS'build'
p1083
(dp1084
S'core'
p1085
S'arduino'
p1086
sS'mcu'
p1087
S'atmega168'
p1088
sS'f_cpu'
p1089
S'8000000L'
p1090
sS'variant'
p1091
S'standard'
p1092
ssaa(lp1093
S'atmega168'
p1094
a(dp1095
g147
S'/usr/share/arduino/hardware/arduino'
p1096
sS'bootloader'
p1097
(dp1098
S'extended_fuses'
p1099
S'0xf8'
p1100
sS'high_fuses'
p1101
S'0xdd'
p1102
sS'low_fuses'
p1103
S'0xff'
p1104
sS'lock_bits'
p1105
S'0xcf'
p1106
sS'file'
p1107
S'ATmegaBOOT_168_ng.hex'
p1108
sS'path'
p1109
S'atmega'
p1110
sS'unlock_bits'
p1111
S'0xff'
p1112
ssS'upload'
p1113
(dp1114
S'protocol'
p1115
S'arduino'
p1116
sS'maximum_size'
p1117
S'14336'
p1118
sS'speed'
p1119
S'19200'
p1120
ssS'name'
p1121
S'Arduino NG or older w/ ATmega168'
p1122
sS'build'
p1123
(dp1124
S'core'
p1125
S'arduino'
p1126
sS'mcu'
p1127
S'atmega168'
p1128
sS'f_cpu'
p1129
S'16000000L'
p1130
sS'variant'
p1131
S'standard'
p1132
ssaa(lp1133
S'atmega8'
p1134
a(dp1135
g147
S'/usr/share/arduino/hardware/arduino'
p1136
sS'bootloader'
p1137
(dp1138
S'high_fuses'
p1139
S'0xca'
p1140
sS'low_fuses'
p1141
S'0xdf'
p1142
sS'lock_bits'
p1143
S'0xcf'
p1144
sS'file'
p1145
S'ATmegaBOOT-prod-firmware-2009-11-07.hex'
p1146
sS'path'
p1147
S'atmega8'
p1148
sS'unlock_bits'
p1149
S'0xff'
p1150
ssS'upload'
p1151
(dp1152
S'protocol'
p1153
S'arduino'
p1154
sS'maximum_size'
p1155
S'7168'
p1156
sS'speed'
p1157
S'19200'
p1158
ssS'name'
p1159
S'Arduino NG or older w/ ATmega8'
p1160
sS'build'
p1161
(dp1162
S'core'
p1163
S'arduino'
p1164
sS'mcu'
p1165
S'atmega8'
p1166
sS'f_cpu'
p1167
S'16000000L'
p1168
sS'variant'
p1169
S'standard'
p1170
ssaa(lp1171
S'robotControl'
p1172
a(dp1173
g147
S'/usr/share/arduino/hardware/arduino'
p1174
sS'bootloader'
p1175
(dp1176
S'extended_fuses'
p1177
S'0xcb'
p1178
sS'high_fuses'
p1179
S'0xd8'
p1180
sS'low_fuses'
p1181
S'0xff'
p1182
sS'lock_bits'
p1183
S'0xef'
p1184
sS'file'
p1185
S'Caterina-Robot-Control.hex'
p1186
sS'path'
p1187
S'caterina-Arduino_Robot'
p1188
sS'unlock_bits'
p1189
S'0xff'
p1190
ssS'upload'
p1191
(dp1192
S'protocol'
p1193
S'avr109'
p1194
sS'maximum_size'
p1195
S'28672'
p1196
sS'speed'
p1197
S'57600'
p1198
sS'disable_flushing'
p1199
S'true'
p1200
ssS'name'
p1201
S'Arduino Robot Control'
p1202
sS'build'
p1203
(dp1204
S'core'
p1205
S'robot'
p1206
sS'f_cpu'
p1207
S'16000000L'
p1208
sS'vid'
p1209
S'0x2341'
p1210
sS'pid'
p1211
S'0x8038'
p1212
sS'variant'
p1213
S'robot_control'
p1214
sS'mcu'
p1215
S'atmega32u4'
p1216
ssaa(lp1217
S'robotMotor'
p1218
a(dp1219
g147
S'/usr/share/arduino/hardware/arduino'
p1220
sS'bootloader'
p1221
(dp1222
S'extended_fuses'
p1223
S'0xcb'
p1224
sS'high_fuses'
p1225
S'0xd8'
p1226
sS'low_fuses'
p1227
S'0xff'
p1228
sS'lock_bits'
p1229
S'0xef'
p1230
sS'file'
p1231
S'Caterina-Robot-Motor.hex'
p1232
sS'path'
p1233
S'caterina-Arduino_Robot'
p1234
sS'unlock_bits'
p1235
S'0xff'
p1236
ssS'upload'
p1237
(dp1238
S'protocol'
p1239
S'avr109'
p1240
sS'maximum_size'
p1241
S'28672'
p1242
sS'speed'
p1243
S'57600'
p1244
sS'disable_flushing'
p1245
S'true'
p1246
ssS'name'
p1247
S'Arduino Robot Motor'
p1248
sS'build'
p1249
(dp1250
S'core'
p1251
S'robot'
p1252
sS'f_cpu'
p1253
S'16000000L'
p1254
sS'vid'
p1255
S'0x2341'
p1256
sS'pid'
p1257
S'0x8039'
p1258
sS'variant'
p1259
S'robot_motor'
p1260
sS'mcu'
p1261
S'atmega32u4'
p1262
ssaatp1263
Rp1264
(dp1265
S'default'
p1266
S'uno'
p1267
sbtp1268
a(S'ldflags'
p1269
g2
(g3
g4
(lp1270
g6
aS'-Wl,-Os'
p1271
aS'-Wl,--gc-sections'
p1272
atp1273
Rp1274
tp1275
a.