(lp0
(S'cppflags'
p1
ccopy_reg
_reconstructor
p2
(cino.utils
SpaceList
p3
c__builtin__
list
p4
(lp5
S'-mmcu=atmega328p'
p6
aS'-DF_CPU=16000000L'
p7
aS'-DARDUINO=105'
p8
aS'-I/usr/share/arduino/hardware/arduino/cores/arduino'
p9
aS'-ffunction-sections'
p10
aS'-fdata-sections'
p11
aS'-g'
p12
aS'-Os'
p13
aS'-w'
p14
aS'-I/usr/share/arduino/hardware/arduino/variants/standard'
p15
aS'-I/usr/share/arduino/hardware/arduino/cores/arduino'
p16
aS'-I/usr/share/arduino/hardware/arduino/cores/arduino/avr-libc'
p17
aS'-Ilib/ros_lib'
p18
aS'-Ilib/ros_lib/roscpp'
p19
aS'-Ilib/ros_lib/pcl_msgs'
p20
aS'-Ilib/ros_lib/map_msgs'
p21
aS'-Ilib/ros_lib/topic_tools'
p22
aS'-Ilib/ros_lib/dynamic_reconfigure'
p23
aS'-Ilib/ros_lib/actionlib'
p24
aS'-Ilib/ros_lib/stereo_msgs'
p25
aS'-Ilib/ros_lib/rosgraph_msgs'
p26
aS'-Ilib/ros_lib/nav_msgs'
p27
aS'-Ilib/ros_lib/ros_essentials_cpp'
p28
aS'-Ilib/ros_lib/smach_msgs'
p29
aS'-Ilib/ros_lib/sensor_msgs'
p30
aS'-Ilib/ros_lib/motors'
p31
aS'-Ilib/ros_lib/laser_assembler'
p32
aS'-Ilib/ros_lib/actionlib_tutorials'
p33
aS'-Ilib/ros_lib/actionlib_msgs'
p34
aS'-Ilib/ros_lib/turtle_actionlib'
p35
aS'-Ilib/ros_lib/std_msgs'
p36
aS'-Ilib/ros_lib/polled_camera'
p37
aS'-Ilib/ros_lib/rospy_tutorials'
p38
aS'-Ilib/ros_lib/geometry_msgs'
p39
aS'-Ilib/ros_lib/trajectory_msgs'
p40
aS'-Ilib/ros_lib/nodelet'
p41
aS'-Ilib/ros_lib/diagnostic_msgs'
p42
aS'-Ilib/ros_lib/tf'
p43
aS'-Ilib/ros_lib/roscpp_tutorials'
p44
aS'-Ilib/ros_lib/gazebo_msgs'
p45
aS'-Ilib/ros_lib/motor_control'
p46
aS'-Ilib/ros_lib/tests'
p47
aS'-Ilib/ros_lib/theora_image_transport'
p48
aS'-Ilib/ros_lib/visualization_msgs'
p49
aS'-Ilib/ros_lib/tf2_msgs'
p50
aS'-Ilib/ros_lib/control_toolbox'
p51
aS'-Ilib/ros_lib/shape_msgs'
p52
aS'-Ilib/ros_lib/controller_manager_msgs'
p53
aS'-Ilib/ros_lib/rosserial_arduino'
p54
aS'-Ilib/ros_lib/control_msgs'
p55
aS'-Ilib/ros_lib/bond'
p56
aS'-Ilib/ros_lib/std_srvs'
p57
aS'-Ilib/ros_lib/rosserial_msgs'
p58
aS'-Ilib/ros_lib/ros'
p59
aS'-Ilib/ros_lib/turtlesim'
p60
aS'-Ilib/ros_lib/tests/float64_test'
p61
aS'-Ilib/ros_lib/tests/array_test'
p62
aS'-Ilib/ros_lib/tests/time_test'
p63
atp64
Rp65
tp66
a(S'cxx'
p67
S'/usr/share/arduino/hardware/tools/avr/bin/avr-g++'
p68
tp69
a(S'version.txt'
p70
S'/usr/share/arduino/lib/version.txt'
p71
tp72
a(S'used_libs'
p73
(lp74
S'/usr/share/arduino/hardware/arduino/cores/arduino'
p75
aS'lib/ros_lib'
p76
atp77
a(S'cc'
p78
S'/usr/share/arduino/hardware/tools/avr/bin/avr-gcc'
p79
tp80
a(S'make'
p81
S'/usr/share/arduino/hardware/tools/avr/bin/make'
p82
tp83
a(S'cflags'
p84
g2
(g3
g4
(lp85
tp86
Rp87
tp88
a(S'build_dir'
p89
S'.build/uno'
p90
tp91
a(S'arduino_core_dir'
p92
g75
tp93
a(S'boards.txt'
p94
(lp95
S'/usr/share/arduino/hardware/arduino/boards.txt'
p96
atp97
a(S'cxxflags'
p98
g2
(g3
g4
(lp99
S'-fno-exceptions'
p100
atp101
Rp102
tp103
a(S'arduino_variants_dir'
p104
S'/usr/share/arduino/hardware/arduino/variants'
p105
tp106
a(S'ar'
p107
S'/usr/share/arduino/hardware/tools/avr/bin/avr-ar'
p108
tp109
a(S'names'
p110
(dp111
S'cpp'
p112
S'%s.cpp'
p113
sS'obj'
p114
S'%s.o'
p115
sS'deps'
p116
S'%s.d'
p117
sS'lib'
p118
S'lib%s.a'
p119
stp120
a(S'deps'
p121
g2
(g3
g4
(lp122
S'.build/uno/src/dependencies.d'
p123
aS'.build/uno/arduino/dependencies.d'
p124
aS'.build/uno/ros_lib/dependencies.d'
p125
atp126
Rp127
tp128
a(S'arduino_libraries_dir'
p129
S'/usr/share/arduino/libraries'
p130
tp131
a(S'arduino_lib_version'
p132
g2
(cino.environment
Version
p133
c__builtin__
tuple
p134
(I1
I0
I5
tp135
tp136
Rp137
tp138
a(S'objcopy'
p139
S'/usr/share/arduino/hardware/tools/avr/bin/avr-objcopy'
p140
tp141
a(S'board_models'
p142
cino.environment
BoardModels
p143
((lp144
(lp145
S'uno'
p146
a(dp147
S'_coredir'
p148
S'/usr/share/arduino/hardware/arduino'
p149
sS'bootloader'
p150
(dp151
S'extended_fuses'
p152
S'0xfd'
p153
sS'high_fuses'
p154
S'0xde'
p155
sS'low_fuses'
p156
S'0xff'
p157
sS'lock_bits'
p158
S'0xcf'
p159
sS'file'
p160
S'optiboot_atmega328.hex'
p161
sS'path'
p162
S'optiboot'
p163
sS'unlock_bits'
p164
S'0xff'
p165
ssS'build'
p166
(dp167
S'core'
p168
S'arduino'
p169
sS'mcu'
p170
S'atmega328p'
p171
sS'f_cpu'
p172
S'16000000L'
p173
sS'variant'
p174
S'standard'
p175
ssS'name'
p176
S'Arduino Uno'
p177
sS'upload'
p178
(dp179
S'protocol'
p180
S'arduino'
p181
sS'maximum_size'
p182
S'32256'
p183
sS'speed'
p184
S'115200'
p185
ssaa(lp186
S'atmega328'
p187
a(dp188
g148
S'/usr/share/arduino/hardware/arduino'
p189
sS'bootloader'
p190
(dp191
S'extended_fuses'
p192
S'0xfd'
p193
sS'high_fuses'
p194
S'0xDA'
p195
sS'low_fuses'
p196
S'0xFF'
p197
sS'lock_bits'
p198
S'0xcf'
p199
sS'file'
p200
S'ATmegaBOOT_168_atmega328.hex'
p201
sS'path'
p202
S'atmega'
p203
sS'unlock_bits'
p204
S'0xff'
p205
ssS'build'
p206
(dp207
S'core'
p208
S'arduino'
p209
sS'mcu'
p210
S'atmega328p'
p211
sS'f_cpu'
p212
S'16000000L'
p213
sS'variant'
p214
S'standard'
p215
ssS'name'
p216
S'Arduino Duemilanove w/ ATmega328'
p217
sS'upload'
p218
(dp219
S'protocol'
p220
S'arduino'
p221
sS'maximum_size'
p222
S'30720'
p223
sS'speed'
p224
S'57600'
p225
ssaa(lp226
S'diecimila'
p227
a(dp228
g148
S'/usr/share/arduino/hardware/arduino'
p229
sS'bootloader'
p230
(dp231
S'extended_fuses'
p232
S'0xf8'
p233
sS'high_fuses'
p234
S'0xdd'
p235
sS'low_fuses'
p236
S'0xff'
p237
sS'lock_bits'
p238
S'0xcf'
p239
sS'file'
p240
S'ATmegaBOOT_168_diecimila.hex'
p241
sS'path'
p242
S'atmega'
p243
sS'unlock_bits'
p244
S'0xff'
p245
ssS'build'
p246
(dp247
S'core'
p248
S'arduino'
p249
sS'mcu'
p250
S'atmega168'
p251
sS'f_cpu'
p252
S'16000000L'
p253
sS'variant'
p254
S'standard'
p255
ssS'name'
p256
S'Arduino Diecimila or Duemilanove w/ ATmega168'
p257
sS'upload'
p258
(dp259
S'protocol'
p260
S'arduino'
p261
sS'maximum_size'
p262
S'14336'
p263
sS'speed'
p264
S'19200'
p265
ssaa(lp266
S'nano328'
p267
a(dp268
g148
S'/usr/share/arduino/hardware/arduino'
p269
sS'bootloader'
p270
(dp271
S'extended_fuses'
p272
S'0xfd'
p273
sS'high_fuses'
p274
S'0xDA'
p275
sS'low_fuses'
p276
S'0xFF'
p277
sS'lock_bits'
p278
S'0xcf'
p279
sS'file'
p280
S'ATmegaBOOT_168_atmega328.hex'
p281
sS'path'
p282
S'atmega'
p283
sS'unlock_bits'
p284
S'0xff'
p285
ssS'build'
p286
(dp287
S'core'
p288
S'arduino'
p289
sS'mcu'
p290
S'atmega328p'
p291
sS'f_cpu'
p292
S'16000000L'
p293
sS'variant'
p294
S'eightanaloginputs'
p295
ssS'name'
p296
S'Arduino Nano w/ ATmega328'
p297
sS'upload'
p298
(dp299
S'protocol'
p300
S'arduino'
p301
sS'maximum_size'
p302
S'30720'
p303
sS'speed'
p304
S'57600'
p305
ssaa(lp306
S'nano'
p307
a(dp308
g148
S'/usr/share/arduino/hardware/arduino'
p309
sS'bootloader'
p310
(dp311
S'extended_fuses'
p312
S'0xf8'
p313
sS'high_fuses'
p314
S'0xdd'
p315
sS'low_fuses'
p316
S'0xff'
p317
sS'lock_bits'
p318
S'0xcf'
p319
sS'file'
p320
S'ATmegaBOOT_168_diecimila.hex'
p321
sS'path'
p322
S'atmega'
p323
sS'unlock_bits'
p324
S'0xff'
p325
ssS'build'
p326
(dp327
S'core'
p328
S'arduino'
p329
sS'mcu'
p330
S'atmega168'
p331
sS'f_cpu'
p332
S'16000000L'
p333
sS'variant'
p334
S'eightanaloginputs'
p335
ssS'name'
p336
S'Arduino Nano w/ ATmega168'
p337
sS'upload'
p338
(dp339
S'protocol'
p340
S'arduino'
p341
sS'maximum_size'
p342
S'14336'
p343
sS'speed'
p344
S'19200'
p345
ssaa(lp346
S'mega2560'
p347
a(dp348
g148
S'/usr/share/arduino/hardware/arduino'
p349
sS'bootloader'
p350
(dp351
S'extended_fuses'
p352
S'0xFD'
p353
sS'high_fuses'
p354
S'0xD8'
p355
sS'low_fuses'
p356
S'0xFF'
p357
sS'lock_bits'
p358
S'0xcf'
p359
sS'file'
p360
S'stk500boot_v2_mega2560.hex'
p361
sS'path'
p362
S'stk500v2'
p363
sS'unlock_bits'
p364
S'0xff'
p365
ssS'build'
p366
(dp367
S'core'
p368
S'arduino'
p369
sS'mcu'
p370
S'atmega2560'
p371
sS'f_cpu'
p372
S'16000000L'
p373
sS'variant'
p374
S'mega'
p375
ssS'name'
p376
S'Arduino Mega 2560 or Mega ADK'
p377
sS'upload'
p378
(dp379
S'protocol'
p380
S'wiring'
p381
sS'maximum_size'
p382
S'258048'
p383
sS'speed'
p384
S'115200'
p385
ssaa(lp386
S'mega'
p387
a(dp388
g148
S'/usr/share/arduino/hardware/arduino'
p389
sS'bootloader'
p390
(dp391
S'extended_fuses'
p392
S'0xF5'
p393
sS'high_fuses'
p394
S'0xDA'
p395
sS'low_fuses'
p396
S'0xFF'
p397
sS'lock_bits'
p398
S'0xcf'
p399
sS'file'
p400
S'ATmegaBOOT_168_atmega1280.hex'
p401
sS'path'
p402
S'atmega'
p403
sS'unlock_bits'
p404
S'0xff'
p405
ssS'build'
p406
(dp407
S'core'
p408
S'arduino'
p409
sS'mcu'
p410
S'atmega1280'
p411
sS'f_cpu'
p412
S'16000000L'
p413
sS'variant'
p414
S'mega'
p415
ssS'name'
p416
S'Arduino Mega (ATmega1280)'
p417
sS'upload'
p418
(dp419
S'protocol'
p420
S'arduino'
p421
sS'maximum_size'
p422
S'126976'
p423
sS'speed'
p424
S'57600'
p425
ssaa(lp426
S'leonardo'
p427
a(dp428
g148
S'/usr/share/arduino/hardware/arduino'
p429
sS'bootloader'
p430
(dp431
S'extended_fuses'
p432
S'0xcb'
p433
sS'high_fuses'
p434
S'0xd8'
p435
sS'low_fuses'
p436
S'0xff'
p437
sS'lock_bits'
p438
S'0xef'
p439
sS'file'
p440
S'Caterina-Leonardo.hex'
p441
sS'path'
p442
S'caterina'
p443
sS'unlock_bits'
p444
S'0xff'
p445
ssS'build'
p446
(dp447
S'core'
p448
S'arduino'
p449
sS'f_cpu'
p450
S'16000000L'
p451
sS'vid'
p452
S'0x2341'
p453
sS'pid'
p454
S'0x8036'
p455
sS'variant'
p456
S'leonardo'
p457
sS'mcu'
p458
S'atmega32u4'
p459
ssS'name'
p460
S'Arduino Leonardo'
p461
sS'upload'
p462
(dp463
S'protocol'
p464
S'avr109'
p465
sS'maximum_size'
p466
S'28672'
p467
sS'speed'
p468
S'57600'
p469
sS'disable_flushing'
p470
S'true'
p471
ssaa(lp472
S'esplora'
p473
a(dp474
g148
S'/usr/share/arduino/hardware/arduino'
p475
sS'bootloader'
p476
(dp477
S'extended_fuses'
p478
S'0xcb'
p479
sS'high_fuses'
p480
S'0xd8'
p481
sS'low_fuses'
p482
S'0xff'
p483
sS'lock_bits'
p484
S'0xef'
p485
sS'file'
p486
S'Caterina-Esplora.hex'
p487
sS'path'
p488
S'caterina'
p489
sS'unlock_bits'
p490
S'0xff'
p491
ssS'build'
p492
(dp493
S'core'
p494
S'arduino'
p495
sS'f_cpu'
p496
S'16000000L'
p497
sS'vid'
p498
S'0x2341'
p499
sS'pid'
p500
S'0x803C'
p501
sS'variant'
p502
S'leonardo'
p503
sS'mcu'
p504
S'atmega32u4'
p505
ssS'name'
p506
S'Arduino Esplora'
p507
sS'upload'
p508
(dp509
S'protocol'
p510
S'avr109'
p511
sS'maximum_size'
p512
S'28672'
p513
sS'speed'
p514
S'57600'
p515
sS'disable_flushing'
p516
S'true'
p517
ssaa(lp518
S'micro'
p519
a(dp520
g148
S'/usr/share/arduino/hardware/arduino'
p521
sS'bootloader'
p522
(dp523
S'extended_fuses'
p524
S'0xcb'
p525
sS'high_fuses'
p526
S'0xd8'
p527
sS'low_fuses'
p528
S'0xff'
p529
sS'lock_bits'
p530
S'0xef'
p531
sS'file'
p532
S'Caterina-Micro.hex'
p533
sS'path'
p534
S'caterina'
p535
sS'unlock_bits'
p536
S'0xff'
p537
ssS'build'
p538
(dp539
S'core'
p540
S'arduino'
p541
sS'f_cpu'
p542
S'16000000L'
p543
sS'vid'
p544
S'0x2341'
p545
sS'pid'
p546
S'0x8037'
p547
sS'variant'
p548
S'micro'
p549
sS'mcu'
p550
S'atmega32u4'
p551
ssS'name'
p552
S'Arduino Micro'
p553
sS'upload'
p554
(dp555
S'protocol'
p556
S'avr109'
p557
sS'maximum_size'
p558
S'28672'
p559
sS'speed'
p560
S'57600'
p561
sS'disable_flushing'
p562
S'true'
p563
ssaa(lp564
S'mini328'
p565
a(dp566
g148
S'/usr/share/arduino/hardware/arduino'
p567
sS'bootloader'
p568
(dp569
S'extended_fuses'
p570
S'0xfd'
p571
sS'high_fuses'
p572
S'0xd8'
p573
sS'low_fuses'
p574
S'0xff'
p575
sS'lock_bits'
p576
S'0xcf'
p577
sS'file'
p578
S'optiboot_atmega328-Mini.hex'
p579
sS'path'
p580
S'optiboot'
p581
sS'unlock_bits'
p582
S'0xff'
p583
ssS'build'
p584
(dp585
S'core'
p586
S'arduino'
p587
sS'mcu'
p588
S'atmega328p'
p589
sS'f_cpu'
p590
S'16000000L'
p591
sS'variant'
p592
S'eightanaloginputs'
p593
ssS'name'
p594
S'Arduino Mini w/ ATmega328'
p595
sS'upload'
p596
(dp597
S'protocol'
p598
S'arduino'
p599
sS'maximum_size'
p600
S'28672'
p601
sS'speed'
p602
S'115200'
p603
ssaa(lp604
S'mini'
p605
a(dp606
g148
S'/usr/share/arduino/hardware/arduino'
p607
sS'bootloader'
p608
(dp609
S'extended_fuses'
p610
S'0xf8'
p611
sS'high_fuses'
p612
S'0xdd'
p613
sS'low_fuses'
p614
S'0xff'
p615
sS'lock_bits'
p616
S'0xcf'
p617
sS'file'
p618
S'ATmegaBOOT_168_ng.hex'
p619
sS'path'
p620
S'atmega'
p621
sS'unlock_bits'
p622
S'0xff'
p623
ssS'build'
p624
(dp625
S'core'
p626
S'arduino'
p627
sS'mcu'
p628
S'atmega168'
p629
sS'f_cpu'
p630
S'16000000L'
p631
sS'variant'
p632
S'eightanaloginputs'
p633
ssS'name'
p634
S'Arduino Mini w/ ATmega168'
p635
sS'upload'
p636
(dp637
S'protocol'
p638
S'arduino'
p639
sS'maximum_size'
p640
S'14336'
p641
sS'speed'
p642
S'19200'
p643
ssaa(lp644
S'ethernet'
p645
a(dp646
g148
S'/usr/share/arduino/hardware/arduino'
p647
sS'bootloader'
p648
(dp649
S'extended_fuses'
p650
S'0xfd'
p651
sS'high_fuses'
p652
S'0xde'
p653
sS'low_fuses'
p654
S'0xff'
p655
sS'lock_bits'
p656
S'0xcf'
p657
sS'file'
p658
S'optiboot_atmega328.hex'
p659
sS'path'
p660
S'optiboot'
p661
sS'unlock_bits'
p662
S'0xff'
p663
ssS'build'
p664
(dp665
S'variant'
p666
S'standard'
p667
sS'mcu'
p668
S'atmega328p'
p669
sS'f_cpu'
p670
S'16000000L'
p671
sS'core'
p672
S'arduino'
p673
ssS'name'
p674
S'Arduino Ethernet'
p675
sS'upload'
p676
(dp677
S'protocol'
p678
S'arduino'
p679
sS'maximum_size'
p680
S'32256'
p681
sS'speed'
p682
S'115200'
p683
ssaa(lp684
S'fio'
p685
a(dp686
g148
S'/usr/share/arduino/hardware/arduino'
p687
sS'bootloader'
p688
(dp689
S'extended_fuses'
p690
S'0xfd'
p691
sS'high_fuses'
p692
S'0xDA'
p693
sS'low_fuses'
p694
S'0xFF'
p695
sS'lock_bits'
p696
S'0xcf'
p697
sS'file'
p698
S'ATmegaBOOT_168_atmega328_pro_8MHz.hex'
p699
sS'path'
p700
S'arduino:atmega'
p701
sS'unlock_bits'
p702
S'0xff'
p703
ssS'build'
p704
(dp705
S'core'
p706
S'arduino'
p707
sS'mcu'
p708
S'atmega328p'
p709
sS'f_cpu'
p710
S'8000000L'
p711
sS'variant'
p712
S'eightanaloginputs'
p713
ssS'name'
p714
S'Arduino Fio'
p715
sS'upload'
p716
(dp717
S'protocol'
p718
S'arduino'
p719
sS'maximum_size'
p720
S'30720'
p721
sS'speed'
p722
S'57600'
p723
ssaa(lp724
S'bt328'
p725
a(dp726
g148
S'/usr/share/arduino/hardware/arduino'
p727
sS'bootloader'
p728
(dp729
S'extended_fuses'
p730
S'0xfd'
p731
sS'high_fuses'
p732
S'0xd8'
p733
sS'low_fuses'
p734
S'0xff'
p735
sS'lock_bits'
p736
S'0xcf'
p737
sS'file'
p738
S'ATmegaBOOT_168_atmega328_bt.hex'
p739
sS'path'
p740
S'bt'
p741
sS'unlock_bits'
p742
S'0xff'
p743
ssS'build'
p744
(dp745
S'core'
p746
S'arduino'
p747
sS'mcu'
p748
S'atmega328p'
p749
sS'f_cpu'
p750
S'16000000L'
p751
sS'variant'
p752
S'eightanaloginputs'
p753
ssS'name'
p754
S'Arduino BT w/ ATmega328'
p755
sS'upload'
p756
(dp757
S'protocol'
p758
S'arduino'
p759
sS'maximum_size'
p760
S'28672'
p761
sS'speed'
p762
S'19200'
p763
sS'disable_flushing'
p764
S'true'
p765
ssaa(lp766
S'bt'
p767
a(dp768
g148
S'/usr/share/arduino/hardware/arduino'
p769
sS'bootloader'
p770
(dp771
S'extended_fuses'
p772
S'0xf8'
p773
sS'high_fuses'
p774
S'0xdd'
p775
sS'low_fuses'
p776
S'0xff'
p777
sS'lock_bits'
p778
S'0xcf'
p779
sS'file'
p780
S'ATmegaBOOT_168.hex'
p781
sS'path'
p782
S'bt'
p783
sS'unlock_bits'
p784
S'0xff'
p785
ssS'build'
p786
(dp787
S'core'
p788
S'arduino'
p789
sS'mcu'
p790
S'atmega168'
p791
sS'f_cpu'
p792
S'16000000L'
p793
sS'variant'
p794
S'eightanaloginputs'
p795
ssS'name'
p796
S'Arduino BT w/ ATmega168'
p797
sS'upload'
p798
(dp799
S'protocol'
p800
S'arduino'
p801
sS'maximum_size'
p802
S'14336'
p803
sS'speed'
p804
S'19200'
p805
sS'disable_flushing'
p806
S'true'
p807
ssaa(lp808
S'LilyPadUSB'
p809
a(dp810
g148
S'/usr/share/arduino/hardware/arduino'
p811
sS'bootloader'
p812
(dp813
S'extended_fuses'
p814
S'0xce'
p815
sS'high_fuses'
p816
S'0xd8'
p817
sS'low_fuses'
p818
S'0xff'
p819
sS'lock_bits'
p820
S'0xef'
p821
sS'file'
p822
S'Caterina-LilyPadUSB.hex'
p823
sS'path'
p824
S'caterina-LilyPadUSB'
p825
sS'unlock_bits'
p826
S'0xff'
p827
ssS'build'
p828
(dp829
S'core'
p830
S'arduino'
p831
sS'f_cpu'
p832
S'8000000L'
p833
sS'vid'
p834
S'0x1B4F'
p835
sS'pid'
p836
S'0x9208'
p837
sS'variant'
p838
S'leonardo'
p839
sS'mcu'
p840
S'atmega32u4'
p841
ssS'name'
p842
S'LilyPad Arduino USB'
p843
sS'upload'
p844
(dp845
S'protocol'
p846
S'avr109'
p847
sS'maximum_size'
p848
S'28672'
p849
sS'speed'
p850
S'57600'
p851
sS'disable_flushing'
p852
S'true'
p853
ssaa(lp854
S'lilypad328'
p855
a(dp856
g148
S'/usr/share/arduino/hardware/arduino'
p857
sS'bootloader'
p858
(dp859
S'extended_fuses'
p860
S'0xfd'
p861
sS'high_fuses'
p862
S'0xDA'
p863
sS'low_fuses'
p864
S'0xFF'
p865
sS'lock_bits'
p866
S'0xcf'
p867
sS'file'
p868
S'ATmegaBOOT_168_atmega328_pro_8MHz.hex'
p869
sS'path'
p870
S'atmega'
p871
sS'unlock_bits'
p872
S'0xff'
p873
ssS'build'
p874
(dp875
S'core'
p876
S'arduino'
p877
sS'mcu'
p878
S'atmega328p'
p879
sS'f_cpu'
p880
S'8000000L'
p881
sS'variant'
p882
S'standard'
p883
ssS'name'
p884
S'LilyPad Arduino w/ ATmega328'
p885
sS'upload'
p886
(dp887
S'protocol'
p888
S'arduino'
p889
sS'maximum_size'
p890
S'30720'
p891
sS'speed'
p892
S'57600'
p893
ssaa(lp894
S'lilypad'
p895
a(dp896
g148
S'/usr/share/arduino/hardware/arduino'
p897
sS'bootloader'
p898
(dp899
S'extended_fuses'
p900
S'0xf8'
p901
sS'high_fuses'
p902
S'0xdd'
p903
sS'low_fuses'
p904
S'0xe2'
p905
sS'lock_bits'
p906
S'0xcf'
p907
sS'file'
p908
S'LilyPadBOOT_168.hex'
p909
sS'path'
p910
S'lilypad'
p911
sS'unlock_bits'
p912
S'0xff'
p913
ssS'build'
p914
(dp915
S'core'
p916
S'arduino'
p917
sS'mcu'
p918
S'atmega168'
p919
sS'f_cpu'
p920
S'8000000L'
p921
sS'variant'
p922
S'standard'
p923
ssS'name'
p924
S'LilyPad Arduino w/ ATmega168'
p925
sS'upload'
p926
(dp927
S'protocol'
p928
S'arduino'
p929
sS'maximum_size'
p930
S'14336'
p931
sS'speed'
p932
S'19200'
p933
ssaa(lp934
S'pro5v328'
p935
a(dp936
g148
S'/usr/share/arduino/hardware/arduino'
p937
sS'bootloader'
p938
(dp939
S'extended_fuses'
p940
S'0xfd'
p941
sS'high_fuses'
p942
S'0xDA'
p943
sS'low_fuses'
p944
S'0xFF'
p945
sS'lock_bits'
p946
S'0xcf'
p947
sS'file'
p948
S'ATmegaBOOT_168_atmega328.hex'
p949
sS'path'
p950
S'atmega'
p951
sS'unlock_bits'
p952
S'0xff'
p953
ssS'build'
p954
(dp955
S'core'
p956
S'arduino'
p957
sS'mcu'
p958
S'atmega328p'
p959
sS'f_cpu'
p960
S'16000000L'
p961
sS'variant'
p962
S'standard'
p963
ssS'name'
p964
S'Arduino Pro or Pro Mini (5V, 16 MHz) w/ ATmega328'
p965
sS'upload'
p966
(dp967
S'protocol'
p968
S'arduino'
p969
sS'maximum_size'
p970
S'30720'
p971
sS'speed'
p972
S'57600'
p973
ssaa(lp974
S'pro5v'
p975
a(dp976
g148
S'/usr/share/arduino/hardware/arduino'
p977
sS'bootloader'
p978
(dp979
S'extended_fuses'
p980
S'0xf8'
p981
sS'high_fuses'
p982
S'0xdd'
p983
sS'low_fuses'
p984
S'0xff'
p985
sS'lock_bits'
p986
S'0xcf'
p987
sS'file'
p988
S'ATmegaBOOT_168_diecimila.hex'
p989
sS'path'
p990
S'atmega'
p991
sS'unlock_bits'
p992
S'0xff'
p993
ssS'build'
p994
(dp995
S'core'
p996
S'arduino'
p997
sS'mcu'
p998
S'atmega168'
p999
sS'f_cpu'
p1000
S'16000000L'
p1001
sS'variant'
p1002
S'standard'
p1003
ssS'name'
p1004
S'Arduino Pro or Pro Mini (5V, 16 MHz) w/ ATmega168'
p1005
sS'upload'
p1006
(dp1007
S'protocol'
p1008
S'arduino'
p1009
sS'maximum_size'
p1010
S'14336'
p1011
sS'speed'
p1012
S'19200'
p1013
ssaa(lp1014
S'pro328'
p1015
a(dp1016
g148
S'/usr/share/arduino/hardware/arduino'
p1017
sS'bootloader'
p1018
(dp1019
S'extended_fuses'
p1020
S'0xfd'
p1021
sS'high_fuses'
p1022
S'0xDA'
p1023
sS'low_fuses'
p1024
S'0xFF'
p1025
sS'lock_bits'
p1026
S'0xcf'
p1027
sS'file'
p1028
S'ATmegaBOOT_168_atmega328_pro_8MHz.hex'
p1029
sS'path'
p1030
S'atmega'
p1031
sS'unlock_bits'
p1032
S'0xff'
p1033
ssS'build'
p1034
(dp1035
S'core'
p1036
S'arduino'
p1037
sS'mcu'
p1038
S'atmega328p'
p1039
sS'f_cpu'
p1040
S'8000000L'
p1041
sS'variant'
p1042
S'standard'
p1043
ssS'name'
p1044
S'Arduino Pro or Pro Mini (3.3V, 8 MHz) w/ ATmega328'
p1045
sS'upload'
p1046
(dp1047
S'protocol'
p1048
S'arduino'
p1049
sS'maximum_size'
p1050
S'30720'
p1051
sS'speed'
p1052
S'57600'
p1053
ssaa(lp1054
S'pro'
p1055
a(dp1056
g148
S'/usr/share/arduino/hardware/arduino'
p1057
sS'bootloader'
p1058
(dp1059
S'extended_fuses'
p1060
S'0xf8'
p1061
sS'high_fuses'
p1062
S'0xdd'
p1063
sS'low_fuses'
p1064
S'0xc6'
p1065
sS'lock_bits'
p1066
S'0xcf'
p1067
sS'file'
p1068
S'ATmegaBOOT_168_pro_8MHz.hex'
p1069
sS'path'
p1070
S'atmega'
p1071
sS'unlock_bits'
p1072
S'0xff'
p1073
ssS'build'
p1074
(dp1075
S'core'
p1076
S'arduino'
p1077
sS'mcu'
p1078
S'atmega168'
p1079
sS'f_cpu'
p1080
S'8000000L'
p1081
sS'variant'
p1082
S'standard'
p1083
ssS'name'
p1084
S'Arduino Pro or Pro Mini (3.3V, 8 MHz) w/ ATmega168'
p1085
sS'upload'
p1086
(dp1087
S'protocol'
p1088
S'arduino'
p1089
sS'maximum_size'
p1090
S'14336'
p1091
sS'speed'
p1092
S'19200'
p1093
ssaa(lp1094
S'atmega168'
p1095
a(dp1096
g148
S'/usr/share/arduino/hardware/arduino'
p1097
sS'bootloader'
p1098
(dp1099
S'extended_fuses'
p1100
S'0xf8'
p1101
sS'high_fuses'
p1102
S'0xdd'
p1103
sS'low_fuses'
p1104
S'0xff'
p1105
sS'lock_bits'
p1106
S'0xcf'
p1107
sS'file'
p1108
S'ATmegaBOOT_168_ng.hex'
p1109
sS'path'
p1110
S'atmega'
p1111
sS'unlock_bits'
p1112
S'0xff'
p1113
ssS'build'
p1114
(dp1115
S'core'
p1116
S'arduino'
p1117
sS'mcu'
p1118
S'atmega168'
p1119
sS'f_cpu'
p1120
S'16000000L'
p1121
sS'variant'
p1122
S'standard'
p1123
ssS'name'
p1124
S'Arduino NG or older w/ ATmega168'
p1125
sS'upload'
p1126
(dp1127
S'protocol'
p1128
S'arduino'
p1129
sS'maximum_size'
p1130
S'14336'
p1131
sS'speed'
p1132
S'19200'
p1133
ssaa(lp1134
S'atmega8'
p1135
a(dp1136
g148
S'/usr/share/arduino/hardware/arduino'
p1137
sS'bootloader'
p1138
(dp1139
S'high_fuses'
p1140
S'0xca'
p1141
sS'low_fuses'
p1142
S'0xdf'
p1143
sS'lock_bits'
p1144
S'0xcf'
p1145
sS'file'
p1146
S'ATmegaBOOT-prod-firmware-2009-11-07.hex'
p1147
sS'path'
p1148
S'atmega8'
p1149
sS'unlock_bits'
p1150
S'0xff'
p1151
ssS'build'
p1152
(dp1153
S'core'
p1154
S'arduino'
p1155
sS'mcu'
p1156
S'atmega8'
p1157
sS'f_cpu'
p1158
S'16000000L'
p1159
sS'variant'
p1160
S'standard'
p1161
ssS'name'
p1162
S'Arduino NG or older w/ ATmega8'
p1163
sS'upload'
p1164
(dp1165
S'protocol'
p1166
S'arduino'
p1167
sS'maximum_size'
p1168
S'7168'
p1169
sS'speed'
p1170
S'19200'
p1171
ssaa(lp1172
S'robotControl'
p1173
a(dp1174
g148
S'/usr/share/arduino/hardware/arduino'
p1175
sS'bootloader'
p1176
(dp1177
S'extended_fuses'
p1178
S'0xcb'
p1179
sS'high_fuses'
p1180
S'0xd8'
p1181
sS'low_fuses'
p1182
S'0xff'
p1183
sS'lock_bits'
p1184
S'0xef'
p1185
sS'file'
p1186
S'Caterina-Robot-Control.hex'
p1187
sS'path'
p1188
S'caterina-Arduino_Robot'
p1189
sS'unlock_bits'
p1190
S'0xff'
p1191
ssS'build'
p1192
(dp1193
S'core'
p1194
S'robot'
p1195
sS'f_cpu'
p1196
S'16000000L'
p1197
sS'vid'
p1198
S'0x2341'
p1199
sS'pid'
p1200
S'0x8038'
p1201
sS'variant'
p1202
S'robot_control'
p1203
sS'mcu'
p1204
S'atmega32u4'
p1205
ssS'name'
p1206
S'Arduino Robot Control'
p1207
sS'upload'
p1208
(dp1209
S'protocol'
p1210
S'avr109'
p1211
sS'maximum_size'
p1212
S'28672'
p1213
sS'speed'
p1214
S'57600'
p1215
sS'disable_flushing'
p1216
S'true'
p1217
ssaa(lp1218
S'robotMotor'
p1219
a(dp1220
g148
S'/usr/share/arduino/hardware/arduino'
p1221
sS'bootloader'
p1222
(dp1223
S'extended_fuses'
p1224
S'0xcb'
p1225
sS'high_fuses'
p1226
S'0xd8'
p1227
sS'low_fuses'
p1228
S'0xff'
p1229
sS'lock_bits'
p1230
S'0xef'
p1231
sS'file'
p1232
S'Caterina-Robot-Motor.hex'
p1233
sS'path'
p1234
S'caterina-Arduino_Robot'
p1235
sS'unlock_bits'
p1236
S'0xff'
p1237
ssS'build'
p1238
(dp1239
S'core'
p1240
S'robot'
p1241
sS'f_cpu'
p1242
S'16000000L'
p1243
sS'vid'
p1244
S'0x2341'
p1245
sS'pid'
p1246
S'0x8039'
p1247
sS'variant'
p1248
S'robot_motor'
p1249
sS'mcu'
p1250
S'atmega32u4'
p1251
ssS'name'
p1252
S'Arduino Robot Motor'
p1253
sS'upload'
p1254
(dp1255
S'protocol'
p1256
S'avr109'
p1257
sS'maximum_size'
p1258
S'28672'
p1259
sS'speed'
p1260
S'57600'
p1261
sS'disable_flushing'
p1262
S'true'
p1263
ssaatp1264
Rp1265
(dp1266
S'default'
p1267
S'uno'
p1268
sbtp1269
a(S'ldflags'
p1270
g2
(g3
g4
(lp1271
g6
aS'-Wl,-Os'
p1272
aS'-Wl,--gc-sections'
p1273
atp1274
Rp1275
tp1276
a.