(lp0
(S'cppflags'
p1
ccopy_reg
_reconstructor
p2
(cino.utils
SpaceList
p3
c__builtin__
list
p4
(lp5
S'-mmcu=atmega328p'
p6
aS'-DF_CPU=16000000L'
p7
aS'-DARDUINO=105'
p8
aS'-I/usr/share/arduino/hardware/arduino/cores/arduino'
p9
aS'-ffunction-sections'
p10
aS'-fdata-sections'
p11
aS'-g'
p12
aS'-Os'
p13
aS'-w'
p14
aS'-I/usr/share/arduino/hardware/arduino/variants/standard'
p15
aS'-I/usr/share/arduino/hardware/arduino/cores/arduino'
p16
aS'-I/usr/share/arduino/hardware/arduino/cores/arduino/avr-libc'
p17
aS'-Ilib/ros_lib'
p18
aS'-Ilib/ros_lib/roscpp'
p19
aS'-Ilib/ros_lib/pcl_msgs'
p20
aS'-Ilib/ros_lib/map_msgs'
p21
aS'-Ilib/ros_lib/topic_tools'
p22
aS'-Ilib/ros_lib/dynamic_reconfigure'
p23
aS'-Ilib/ros_lib/actionlib'
p24
aS'-Ilib/ros_lib/stereo_msgs'
p25
aS'-Ilib/ros_lib/rosgraph_msgs'
p26
aS'-Ilib/ros_lib/nav_msgs'
p27
aS'-Ilib/ros_lib/ros_essentials_cpp'
p28
aS'-Ilib/ros_lib/smach_msgs'
p29
aS'-Ilib/ros_lib/sensor_msgs'
p30
aS'-Ilib/ros_lib/motors'
p31
aS'-Ilib/ros_lib/laser_assembler'
p32
aS'-Ilib/ros_lib/actionlib_tutorials'
p33
aS'-Ilib/ros_lib/actionlib_msgs'
p34
aS'-Ilib/ros_lib/turtle_actionlib'
p35
aS'-Ilib/ros_lib/std_msgs'
p36
aS'-Ilib/ros_lib/polled_camera'
p37
aS'-Ilib/ros_lib/rospy_tutorials'
p38
aS'-Ilib/ros_lib/geometry_msgs'
p39
aS'-Ilib/ros_lib/trajectory_msgs'
p40
aS'-Ilib/ros_lib/nodelet'
p41
aS'-Ilib/ros_lib/diagnostic_msgs'
p42
aS'-Ilib/ros_lib/tf'
p43
aS'-Ilib/ros_lib/roscpp_tutorials'
p44
aS'-Ilib/ros_lib/gazebo_msgs'
p45
aS'-Ilib/ros_lib/motor_control'
p46
aS'-Ilib/ros_lib/tests'
p47
aS'-Ilib/ros_lib/theora_image_transport'
p48
aS'-Ilib/ros_lib/visualization_msgs'
p49
aS'-Ilib/ros_lib/tf2_msgs'
p50
aS'-Ilib/ros_lib/control_toolbox'
p51
aS'-Ilib/ros_lib/shape_msgs'
p52
aS'-Ilib/ros_lib/controller_manager_msgs'
p53
aS'-Ilib/ros_lib/rosserial_arduino'
p54
aS'-Ilib/ros_lib/control_msgs'
p55
aS'-Ilib/ros_lib/bond'
p56
aS'-Ilib/ros_lib/std_srvs'
p57
aS'-Ilib/ros_lib/rosserial_msgs'
p58
aS'-Ilib/ros_lib/ros'
p59
aS'-Ilib/ros_lib/turtlesim'
p60
aS'-Ilib/ros_lib/tests/float64_test'
p61
aS'-Ilib/ros_lib/tests/array_test'
p62
aS'-Ilib/ros_lib/tests/time_test'
p63
atp64
Rp65
tp66
a(S'cxx'
p67
S'/usr/share/arduino/hardware/tools/avr/bin/avr-g++'
p68
tp69
a(S'build_dir'
p70
S'.build/uno'
p71
tp72
a(S'avrdude'
p73
S'/usr/share/arduino/hardware/tools/avrdude'
p74
tp75
a(S'ar'
p76
S'/usr/share/arduino/hardware/tools/avr/bin/avr-ar'
p77
tp78
a(S'names'
p79
(dp80
S'cpp'
p81
S'%s.cpp'
p82
sS'obj'
p83
S'%s.o'
p84
sS'deps'
p85
S'%s.d'
p86
sS'lib'
p87
S'lib%s.a'
p88
stp89
a(S'ldflags'
p90
g2
(g3
g4
(lp91
g6
aS'-Wl,-Os'
p92
aS'-Wl,--gc-sections'
p93
atp94
Rp95
tp96
a(S'arduino_lib_version'
p97
g2
(cino.environment
Version
p98
c__builtin__
tuple
p99
(I1
I0
I5
tp100
tp101
Rp102
tp103
a(S'objcopy'
p104
S'/usr/share/arduino/hardware/tools/avr/bin/avr-objcopy'
p105
tp106
a(S'board_models'
p107
cino.environment
BoardModels
p108
((lp109
(lp110
S'uno'
p111
a(dp112
S'bootloader'
p113
(dp114
S'extended_fuses'
p115
S'0xfd'
p116
sS'high_fuses'
p117
S'0xde'
p118
sS'low_fuses'
p119
S'0xff'
p120
sS'lock_bits'
p121
S'0xcf'
p122
sS'file'
p123
S'optiboot_atmega328.hex'
p124
sS'path'
p125
S'optiboot'
p126
sS'unlock_bits'
p127
S'0xff'
p128
ssS'upload'
p129
(dp130
S'speed'
p131
S'115200'
p132
sS'maximum_size'
p133
S'32256'
p134
sS'protocol'
p135
S'arduino'
p136
ssS'build'
p137
(dp138
S'core'
p139
S'arduino'
p140
sS'mcu'
p141
S'atmega328p'
p142
sS'f_cpu'
p143
S'16000000L'
p144
sS'variant'
p145
S'standard'
p146
ssS'name'
p147
S'Arduino Uno'
p148
sS'_coredir'
p149
S'/usr/share/arduino/hardware/arduino'
p150
saa(lp151
S'atmega328'
p152
a(dp153
S'bootloader'
p154
(dp155
S'extended_fuses'
p156
S'0xfd'
p157
sS'high_fuses'
p158
S'0xDA'
p159
sS'low_fuses'
p160
S'0xFF'
p161
sS'lock_bits'
p162
S'0xcf'
p163
sS'file'
p164
S'ATmegaBOOT_168_atmega328.hex'
p165
sS'path'
p166
S'atmega'
p167
sS'unlock_bits'
p168
S'0xff'
p169
ssS'upload'
p170
(dp171
S'speed'
p172
S'57600'
p173
sS'maximum_size'
p174
S'30720'
p175
sS'protocol'
p176
S'arduino'
p177
ssS'build'
p178
(dp179
S'core'
p180
S'arduino'
p181
sS'mcu'
p182
S'atmega328p'
p183
sS'f_cpu'
p184
S'16000000L'
p185
sS'variant'
p186
S'standard'
p187
ssS'name'
p188
S'Arduino Duemilanove w/ ATmega328'
p189
sg149
S'/usr/share/arduino/hardware/arduino'
p190
saa(lp191
S'diecimila'
p192
a(dp193
S'bootloader'
p194
(dp195
S'extended_fuses'
p196
S'0xf8'
p197
sS'high_fuses'
p198
S'0xdd'
p199
sS'low_fuses'
p200
S'0xff'
p201
sS'lock_bits'
p202
S'0xcf'
p203
sS'file'
p204
S'ATmegaBOOT_168_diecimila.hex'
p205
sS'path'
p206
S'atmega'
p207
sS'unlock_bits'
p208
S'0xff'
p209
ssS'upload'
p210
(dp211
S'speed'
p212
S'19200'
p213
sS'maximum_size'
p214
S'14336'
p215
sS'protocol'
p216
S'arduino'
p217
ssS'build'
p218
(dp219
S'core'
p220
S'arduino'
p221
sS'mcu'
p222
S'atmega168'
p223
sS'f_cpu'
p224
S'16000000L'
p225
sS'variant'
p226
S'standard'
p227
ssS'name'
p228
S'Arduino Diecimila or Duemilanove w/ ATmega168'
p229
sg149
S'/usr/share/arduino/hardware/arduino'
p230
saa(lp231
S'nano328'
p232
a(dp233
S'bootloader'
p234
(dp235
S'extended_fuses'
p236
S'0xfd'
p237
sS'high_fuses'
p238
S'0xDA'
p239
sS'low_fuses'
p240
S'0xFF'
p241
sS'lock_bits'
p242
S'0xcf'
p243
sS'file'
p244
S'ATmegaBOOT_168_atmega328.hex'
p245
sS'path'
p246
S'atmega'
p247
sS'unlock_bits'
p248
S'0xff'
p249
ssS'upload'
p250
(dp251
S'speed'
p252
S'57600'
p253
sS'maximum_size'
p254
S'30720'
p255
sS'protocol'
p256
S'arduino'
p257
ssS'build'
p258
(dp259
S'core'
p260
S'arduino'
p261
sS'mcu'
p262
S'atmega328p'
p263
sS'f_cpu'
p264
S'16000000L'
p265
sS'variant'
p266
S'eightanaloginputs'
p267
ssS'name'
p268
S'Arduino Nano w/ ATmega328'
p269
sg149
S'/usr/share/arduino/hardware/arduino'
p270
saa(lp271
S'nano'
p272
a(dp273
S'bootloader'
p274
(dp275
S'extended_fuses'
p276
S'0xf8'
p277
sS'high_fuses'
p278
S'0xdd'
p279
sS'low_fuses'
p280
S'0xff'
p281
sS'lock_bits'
p282
S'0xcf'
p283
sS'file'
p284
S'ATmegaBOOT_168_diecimila.hex'
p285
sS'path'
p286
S'atmega'
p287
sS'unlock_bits'
p288
S'0xff'
p289
ssS'upload'
p290
(dp291
S'speed'
p292
S'19200'
p293
sS'maximum_size'
p294
S'14336'
p295
sS'protocol'
p296
S'arduino'
p297
ssS'build'
p298
(dp299
S'core'
p300
S'arduino'
p301
sS'mcu'
p302
S'atmega168'
p303
sS'f_cpu'
p304
S'16000000L'
p305
sS'variant'
p306
S'eightanaloginputs'
p307
ssS'name'
p308
S'Arduino Nano w/ ATmega168'
p309
sg149
S'/usr/share/arduino/hardware/arduino'
p310
saa(lp311
S'mega2560'
p312
a(dp313
S'bootloader'
p314
(dp315
S'extended_fuses'
p316
S'0xFD'
p317
sS'high_fuses'
p318
S'0xD8'
p319
sS'low_fuses'
p320
S'0xFF'
p321
sS'lock_bits'
p322
S'0xcf'
p323
sS'file'
p324
S'stk500boot_v2_mega2560.hex'
p325
sS'path'
p326
S'stk500v2'
p327
sS'unlock_bits'
p328
S'0xff'
p329
ssS'upload'
p330
(dp331
S'speed'
p332
S'115200'
p333
sS'maximum_size'
p334
S'258048'
p335
sS'protocol'
p336
S'wiring'
p337
ssS'build'
p338
(dp339
S'core'
p340
S'arduino'
p341
sS'mcu'
p342
S'atmega2560'
p343
sS'f_cpu'
p344
S'16000000L'
p345
sS'variant'
p346
S'mega'
p347
ssS'name'
p348
S'Arduino Mega 2560 or Mega ADK'
p349
sg149
S'/usr/share/arduino/hardware/arduino'
p350
saa(lp351
S'mega'
p352
a(dp353
S'bootloader'
p354
(dp355
S'extended_fuses'
p356
S'0xF5'
p357
sS'high_fuses'
p358
S'0xDA'
p359
sS'low_fuses'
p360
S'0xFF'
p361
sS'lock_bits'
p362
S'0xcf'
p363
sS'file'
p364
S'ATmegaBOOT_168_atmega1280.hex'
p365
sS'path'
p366
S'atmega'
p367
sS'unlock_bits'
p368
S'0xff'
p369
ssS'upload'
p370
(dp371
S'speed'
p372
S'57600'
p373
sS'maximum_size'
p374
S'126976'
p375
sS'protocol'
p376
S'arduino'
p377
ssS'build'
p378
(dp379
S'core'
p380
S'arduino'
p381
sS'mcu'
p382
S'atmega1280'
p383
sS'f_cpu'
p384
S'16000000L'
p385
sS'variant'
p386
S'mega'
p387
ssS'name'
p388
S'Arduino Mega (ATmega1280)'
p389
sg149
S'/usr/share/arduino/hardware/arduino'
p390
saa(lp391
S'leonardo'
p392
a(dp393
S'bootloader'
p394
(dp395
S'extended_fuses'
p396
S'0xcb'
p397
sS'high_fuses'
p398
S'0xd8'
p399
sS'low_fuses'
p400
S'0xff'
p401
sS'lock_bits'
p402
S'0xef'
p403
sS'file'
p404
S'Caterina-Leonardo.hex'
p405
sS'path'
p406
S'caterina'
p407
sS'unlock_bits'
p408
S'0xff'
p409
ssS'upload'
p410
(dp411
S'speed'
p412
S'57600'
p413
sS'maximum_size'
p414
S'28672'
p415
sS'protocol'
p416
S'avr109'
p417
sS'disable_flushing'
p418
S'true'
p419
ssS'build'
p420
(dp421
S'core'
p422
S'arduino'
p423
sS'f_cpu'
p424
S'16000000L'
p425
sS'vid'
p426
S'0x2341'
p427
sS'pid'
p428
S'0x8036'
p429
sS'variant'
p430
S'leonardo'
p431
sS'mcu'
p432
S'atmega32u4'
p433
ssS'name'
p434
S'Arduino Leonardo'
p435
sg149
S'/usr/share/arduino/hardware/arduino'
p436
saa(lp437
S'esplora'
p438
a(dp439
S'bootloader'
p440
(dp441
S'extended_fuses'
p442
S'0xcb'
p443
sS'high_fuses'
p444
S'0xd8'
p445
sS'low_fuses'
p446
S'0xff'
p447
sS'lock_bits'
p448
S'0xef'
p449
sS'file'
p450
S'Caterina-Esplora.hex'
p451
sS'path'
p452
S'caterina'
p453
sS'unlock_bits'
p454
S'0xff'
p455
ssS'upload'
p456
(dp457
S'speed'
p458
S'57600'
p459
sS'maximum_size'
p460
S'28672'
p461
sS'protocol'
p462
S'avr109'
p463
sS'disable_flushing'
p464
S'true'
p465
ssS'build'
p466
(dp467
S'core'
p468
S'arduino'
p469
sS'f_cpu'
p470
S'16000000L'
p471
sS'vid'
p472
S'0x2341'
p473
sS'pid'
p474
S'0x803C'
p475
sS'variant'
p476
S'leonardo'
p477
sS'mcu'
p478
S'atmega32u4'
p479
ssS'name'
p480
S'Arduino Esplora'
p481
sg149
S'/usr/share/arduino/hardware/arduino'
p482
saa(lp483
S'micro'
p484
a(dp485
S'bootloader'
p486
(dp487
S'extended_fuses'
p488
S'0xcb'
p489
sS'high_fuses'
p490
S'0xd8'
p491
sS'low_fuses'
p492
S'0xff'
p493
sS'lock_bits'
p494
S'0xef'
p495
sS'file'
p496
S'Caterina-Micro.hex'
p497
sS'path'
p498
S'caterina'
p499
sS'unlock_bits'
p500
S'0xff'
p501
ssS'upload'
p502
(dp503
S'speed'
p504
S'57600'
p505
sS'maximum_size'
p506
S'28672'
p507
sS'protocol'
p508
S'avr109'
p509
sS'disable_flushing'
p510
S'true'
p511
ssS'build'
p512
(dp513
S'core'
p514
S'arduino'
p515
sS'f_cpu'
p516
S'16000000L'
p517
sS'vid'
p518
S'0x2341'
p519
sS'pid'
p520
S'0x8037'
p521
sS'variant'
p522
S'micro'
p523
sS'mcu'
p524
S'atmega32u4'
p525
ssS'name'
p526
S'Arduino Micro'
p527
sg149
S'/usr/share/arduino/hardware/arduino'
p528
saa(lp529
S'mini328'
p530
a(dp531
S'bootloader'
p532
(dp533
S'extended_fuses'
p534
S'0xfd'
p535
sS'high_fuses'
p536
S'0xd8'
p537
sS'low_fuses'
p538
S'0xff'
p539
sS'lock_bits'
p540
S'0xcf'
p541
sS'file'
p542
S'optiboot_atmega328-Mini.hex'
p543
sS'path'
p544
S'optiboot'
p545
sS'unlock_bits'
p546
S'0xff'
p547
ssS'upload'
p548
(dp549
S'speed'
p550
S'115200'
p551
sS'maximum_size'
p552
S'28672'
p553
sS'protocol'
p554
S'arduino'
p555
ssS'build'
p556
(dp557
S'core'
p558
S'arduino'
p559
sS'mcu'
p560
S'atmega328p'
p561
sS'f_cpu'
p562
S'16000000L'
p563
sS'variant'
p564
S'eightanaloginputs'
p565
ssS'name'
p566
S'Arduino Mini w/ ATmega328'
p567
sg149
S'/usr/share/arduino/hardware/arduino'
p568
saa(lp569
S'mini'
p570
a(dp571
S'bootloader'
p572
(dp573
S'extended_fuses'
p574
S'0xf8'
p575
sS'high_fuses'
p576
S'0xdd'
p577
sS'low_fuses'
p578
S'0xff'
p579
sS'lock_bits'
p580
S'0xcf'
p581
sS'file'
p582
S'ATmegaBOOT_168_ng.hex'
p583
sS'path'
p584
S'atmega'
p585
sS'unlock_bits'
p586
S'0xff'
p587
ssS'upload'
p588
(dp589
S'speed'
p590
S'19200'
p591
sS'maximum_size'
p592
S'14336'
p593
sS'protocol'
p594
S'arduino'
p595
ssS'build'
p596
(dp597
S'core'
p598
S'arduino'
p599
sS'mcu'
p600
S'atmega168'
p601
sS'f_cpu'
p602
S'16000000L'
p603
sS'variant'
p604
S'eightanaloginputs'
p605
ssS'name'
p606
S'Arduino Mini w/ ATmega168'
p607
sg149
S'/usr/share/arduino/hardware/arduino'
p608
saa(lp609
S'ethernet'
p610
a(dp611
S'bootloader'
p612
(dp613
S'extended_fuses'
p614
S'0xfd'
p615
sS'high_fuses'
p616
S'0xde'
p617
sS'low_fuses'
p618
S'0xff'
p619
sS'lock_bits'
p620
S'0xcf'
p621
sS'file'
p622
S'optiboot_atmega328.hex'
p623
sS'path'
p624
S'optiboot'
p625
sS'unlock_bits'
p626
S'0xff'
p627
ssS'upload'
p628
(dp629
S'speed'
p630
S'115200'
p631
sS'maximum_size'
p632
S'32256'
p633
sS'protocol'
p634
S'arduino'
p635
ssS'build'
p636
(dp637
S'f_cpu'
p638
S'16000000L'
p639
sS'mcu'
p640
S'atmega328p'
p641
sS'variant'
p642
S'standard'
p643
sS'core'
p644
S'arduino'
p645
ssS'name'
p646
S'Arduino Ethernet'
p647
sg149
S'/usr/share/arduino/hardware/arduino'
p648
saa(lp649
S'fio'
p650
a(dp651
S'bootloader'
p652
(dp653
S'extended_fuses'
p654
S'0xfd'
p655
sS'high_fuses'
p656
S'0xDA'
p657
sS'low_fuses'
p658
S'0xFF'
p659
sS'lock_bits'
p660
S'0xcf'
p661
sS'file'
p662
S'ATmegaBOOT_168_atmega328_pro_8MHz.hex'
p663
sS'path'
p664
S'arduino:atmega'
p665
sS'unlock_bits'
p666
S'0xff'
p667
ssS'upload'
p668
(dp669
S'speed'
p670
S'57600'
p671
sS'maximum_size'
p672
S'30720'
p673
sS'protocol'
p674
S'arduino'
p675
ssS'build'
p676
(dp677
S'core'
p678
S'arduino'
p679
sS'mcu'
p680
S'atmega328p'
p681
sS'f_cpu'
p682
S'8000000L'
p683
sS'variant'
p684
S'eightanaloginputs'
p685
ssS'name'
p686
S'Arduino Fio'
p687
sg149
S'/usr/share/arduino/hardware/arduino'
p688
saa(lp689
S'bt328'
p690
a(dp691
S'bootloader'
p692
(dp693
S'extended_fuses'
p694
S'0xfd'
p695
sS'high_fuses'
p696
S'0xd8'
p697
sS'low_fuses'
p698
S'0xff'
p699
sS'lock_bits'
p700
S'0xcf'
p701
sS'file'
p702
S'ATmegaBOOT_168_atmega328_bt.hex'
p703
sS'path'
p704
S'bt'
p705
sS'unlock_bits'
p706
S'0xff'
p707
ssS'upload'
p708
(dp709
S'speed'
p710
S'19200'
p711
sS'maximum_size'
p712
S'28672'
p713
sS'protocol'
p714
S'arduino'
p715
sS'disable_flushing'
p716
S'true'
p717
ssS'build'
p718
(dp719
S'core'
p720
S'arduino'
p721
sS'mcu'
p722
S'atmega328p'
p723
sS'f_cpu'
p724
S'16000000L'
p725
sS'variant'
p726
S'eightanaloginputs'
p727
ssS'name'
p728
S'Arduino BT w/ ATmega328'
p729
sg149
S'/usr/share/arduino/hardware/arduino'
p730
saa(lp731
S'bt'
p732
a(dp733
S'bootloader'
p734
(dp735
S'extended_fuses'
p736
S'0xf8'
p737
sS'high_fuses'
p738
S'0xdd'
p739
sS'low_fuses'
p740
S'0xff'
p741
sS'lock_bits'
p742
S'0xcf'
p743
sS'file'
p744
S'ATmegaBOOT_168.hex'
p745
sS'path'
p746
S'bt'
p747
sS'unlock_bits'
p748
S'0xff'
p749
ssS'upload'
p750
(dp751
S'speed'
p752
S'19200'
p753
sS'maximum_size'
p754
S'14336'
p755
sS'protocol'
p756
S'arduino'
p757
sS'disable_flushing'
p758
S'true'
p759
ssS'build'
p760
(dp761
S'core'
p762
S'arduino'
p763
sS'mcu'
p764
S'atmega168'
p765
sS'f_cpu'
p766
S'16000000L'
p767
sS'variant'
p768
S'eightanaloginputs'
p769
ssS'name'
p770
S'Arduino BT w/ ATmega168'
p771
sg149
S'/usr/share/arduino/hardware/arduino'
p772
saa(lp773
S'LilyPadUSB'
p774
a(dp775
S'bootloader'
p776
(dp777
S'extended_fuses'
p778
S'0xce'
p779
sS'high_fuses'
p780
S'0xd8'
p781
sS'low_fuses'
p782
S'0xff'
p783
sS'lock_bits'
p784
S'0xef'
p785
sS'file'
p786
S'Caterina-LilyPadUSB.hex'
p787
sS'path'
p788
S'caterina-LilyPadUSB'
p789
sS'unlock_bits'
p790
S'0xff'
p791
ssS'upload'
p792
(dp793
S'speed'
p794
S'57600'
p795
sS'maximum_size'
p796
S'28672'
p797
sS'protocol'
p798
S'avr109'
p799
sS'disable_flushing'
p800
S'true'
p801
ssS'build'
p802
(dp803
S'core'
p804
S'arduino'
p805
sS'f_cpu'
p806
S'8000000L'
p807
sS'vid'
p808
S'0x1B4F'
p809
sS'pid'
p810
S'0x9208'
p811
sS'variant'
p812
S'leonardo'
p813
sS'mcu'
p814
S'atmega32u4'
p815
ssS'name'
p816
S'LilyPad Arduino USB'
p817
sg149
S'/usr/share/arduino/hardware/arduino'
p818
saa(lp819
S'lilypad328'
p820
a(dp821
S'bootloader'
p822
(dp823
S'extended_fuses'
p824
S'0xfd'
p825
sS'high_fuses'
p826
S'0xDA'
p827
sS'low_fuses'
p828
S'0xFF'
p829
sS'lock_bits'
p830
S'0xcf'
p831
sS'file'
p832
S'ATmegaBOOT_168_atmega328_pro_8MHz.hex'
p833
sS'path'
p834
S'atmega'
p835
sS'unlock_bits'
p836
S'0xff'
p837
ssS'upload'
p838
(dp839
S'speed'
p840
S'57600'
p841
sS'maximum_size'
p842
S'30720'
p843
sS'protocol'
p844
S'arduino'
p845
ssS'build'
p846
(dp847
S'core'
p848
S'arduino'
p849
sS'mcu'
p850
S'atmega328p'
p851
sS'f_cpu'
p852
S'8000000L'
p853
sS'variant'
p854
S'standard'
p855
ssS'name'
p856
S'LilyPad Arduino w/ ATmega328'
p857
sg149
S'/usr/share/arduino/hardware/arduino'
p858
saa(lp859
S'lilypad'
p860
a(dp861
S'bootloader'
p862
(dp863
S'extended_fuses'
p864
S'0xf8'
p865
sS'high_fuses'
p866
S'0xdd'
p867
sS'low_fuses'
p868
S'0xe2'
p869
sS'lock_bits'
p870
S'0xcf'
p871
sS'file'
p872
S'LilyPadBOOT_168.hex'
p873
sS'path'
p874
S'lilypad'
p875
sS'unlock_bits'
p876
S'0xff'
p877
ssS'upload'
p878
(dp879
S'speed'
p880
S'19200'
p881
sS'maximum_size'
p882
S'14336'
p883
sS'protocol'
p884
S'arduino'
p885
ssS'build'
p886
(dp887
S'core'
p888
S'arduino'
p889
sS'mcu'
p890
S'atmega168'
p891
sS'f_cpu'
p892
S'8000000L'
p893
sS'variant'
p894
S'standard'
p895
ssS'name'
p896
S'LilyPad Arduino w/ ATmega168'
p897
sg149
S'/usr/share/arduino/hardware/arduino'
p898
saa(lp899
S'pro5v328'
p900
a(dp901
S'bootloader'
p902
(dp903
S'extended_fuses'
p904
S'0xfd'
p905
sS'high_fuses'
p906
S'0xDA'
p907
sS'low_fuses'
p908
S'0xFF'
p909
sS'lock_bits'
p910
S'0xcf'
p911
sS'file'
p912
S'ATmegaBOOT_168_atmega328.hex'
p913
sS'path'
p914
S'atmega'
p915
sS'unlock_bits'
p916
S'0xff'
p917
ssS'upload'
p918
(dp919
S'speed'
p920
S'57600'
p921
sS'maximum_size'
p922
S'30720'
p923
sS'protocol'
p924
S'arduino'
p925
ssS'build'
p926
(dp927
S'core'
p928
S'arduino'
p929
sS'mcu'
p930
S'atmega328p'
p931
sS'f_cpu'
p932
S'16000000L'
p933
sS'variant'
p934
S'standard'
p935
ssS'name'
p936
S'Arduino Pro or Pro Mini (5V, 16 MHz) w/ ATmega328'
p937
sg149
S'/usr/share/arduino/hardware/arduino'
p938
saa(lp939
S'pro5v'
p940
a(dp941
S'bootloader'
p942
(dp943
S'extended_fuses'
p944
S'0xf8'
p945
sS'high_fuses'
p946
S'0xdd'
p947
sS'low_fuses'
p948
S'0xff'
p949
sS'lock_bits'
p950
S'0xcf'
p951
sS'file'
p952
S'ATmegaBOOT_168_diecimila.hex'
p953
sS'path'
p954
S'atmega'
p955
sS'unlock_bits'
p956
S'0xff'
p957
ssS'upload'
p958
(dp959
S'speed'
p960
S'19200'
p961
sS'maximum_size'
p962
S'14336'
p963
sS'protocol'
p964
S'arduino'
p965
ssS'build'
p966
(dp967
S'core'
p968
S'arduino'
p969
sS'mcu'
p970
S'atmega168'
p971
sS'f_cpu'
p972
S'16000000L'
p973
sS'variant'
p974
S'standard'
p975
ssS'name'
p976
S'Arduino Pro or Pro Mini (5V, 16 MHz) w/ ATmega168'
p977
sg149
S'/usr/share/arduino/hardware/arduino'
p978
saa(lp979
S'pro328'
p980
a(dp981
S'bootloader'
p982
(dp983
S'extended_fuses'
p984
S'0xfd'
p985
sS'high_fuses'
p986
S'0xDA'
p987
sS'low_fuses'
p988
S'0xFF'
p989
sS'lock_bits'
p990
S'0xcf'
p991
sS'file'
p992
S'ATmegaBOOT_168_atmega328_pro_8MHz.hex'
p993
sS'path'
p994
S'atmega'
p995
sS'unlock_bits'
p996
S'0xff'
p997
ssS'upload'
p998
(dp999
S'speed'
p1000
S'57600'
p1001
sS'maximum_size'
p1002
S'30720'
p1003
sS'protocol'
p1004
S'arduino'
p1005
ssS'build'
p1006
(dp1007
S'core'
p1008
S'arduino'
p1009
sS'mcu'
p1010
S'atmega328p'
p1011
sS'f_cpu'
p1012
S'8000000L'
p1013
sS'variant'
p1014
S'standard'
p1015
ssS'name'
p1016
S'Arduino Pro or Pro Mini (3.3V, 8 MHz) w/ ATmega328'
p1017
sg149
S'/usr/share/arduino/hardware/arduino'
p1018
saa(lp1019
S'pro'
p1020
a(dp1021
S'bootloader'
p1022
(dp1023
S'extended_fuses'
p1024
S'0xf8'
p1025
sS'high_fuses'
p1026
S'0xdd'
p1027
sS'low_fuses'
p1028
S'0xc6'
p1029
sS'lock_bits'
p1030
S'0xcf'
p1031
sS'file'
p1032
S'ATmegaBOOT_168_pro_8MHz.hex'
p1033
sS'path'
p1034
S'atmega'
p1035
sS'unlock_bits'
p1036
S'0xff'
p1037
ssS'upload'
p1038
(dp1039
S'speed'
p1040
S'19200'
p1041
sS'maximum_size'
p1042
S'14336'
p1043
sS'protocol'
p1044
S'arduino'
p1045
ssS'build'
p1046
(dp1047
S'core'
p1048
S'arduino'
p1049
sS'mcu'
p1050
S'atmega168'
p1051
sS'f_cpu'
p1052
S'8000000L'
p1053
sS'variant'
p1054
S'standard'
p1055
ssS'name'
p1056
S'Arduino Pro or Pro Mini (3.3V, 8 MHz) w/ ATmega168'
p1057
sg149
S'/usr/share/arduino/hardware/arduino'
p1058
saa(lp1059
S'atmega168'
p1060
a(dp1061
S'bootloader'
p1062
(dp1063
S'extended_fuses'
p1064
S'0xf8'
p1065
sS'high_fuses'
p1066
S'0xdd'
p1067
sS'low_fuses'
p1068
S'0xff'
p1069
sS'lock_bits'
p1070
S'0xcf'
p1071
sS'file'
p1072
S'ATmegaBOOT_168_ng.hex'
p1073
sS'path'
p1074
S'atmega'
p1075
sS'unlock_bits'
p1076
S'0xff'
p1077
ssS'upload'
p1078
(dp1079
S'speed'
p1080
S'19200'
p1081
sS'maximum_size'
p1082
S'14336'
p1083
sS'protocol'
p1084
S'arduino'
p1085
ssS'build'
p1086
(dp1087
S'core'
p1088
S'arduino'
p1089
sS'mcu'
p1090
S'atmega168'
p1091
sS'f_cpu'
p1092
S'16000000L'
p1093
sS'variant'
p1094
S'standard'
p1095
ssS'name'
p1096
S'Arduino NG or older w/ ATmega168'
p1097
sg149
S'/usr/share/arduino/hardware/arduino'
p1098
saa(lp1099
S'atmega8'
p1100
a(dp1101
S'bootloader'
p1102
(dp1103
S'high_fuses'
p1104
S'0xca'
p1105
sS'low_fuses'
p1106
S'0xdf'
p1107
sS'lock_bits'
p1108
S'0xcf'
p1109
sS'file'
p1110
S'ATmegaBOOT-prod-firmware-2009-11-07.hex'
p1111
sS'path'
p1112
S'atmega8'
p1113
sS'unlock_bits'
p1114
S'0xff'
p1115
ssS'upload'
p1116
(dp1117
S'speed'
p1118
S'19200'
p1119
sS'maximum_size'
p1120
S'7168'
p1121
sS'protocol'
p1122
S'arduino'
p1123
ssS'build'
p1124
(dp1125
S'core'
p1126
S'arduino'
p1127
sS'mcu'
p1128
S'atmega8'
p1129
sS'f_cpu'
p1130
S'16000000L'
p1131
sS'variant'
p1132
S'standard'
p1133
ssS'name'
p1134
S'Arduino NG or older w/ ATmega8'
p1135
sg149
S'/usr/share/arduino/hardware/arduino'
p1136
saa(lp1137
S'robotControl'
p1138
a(dp1139
S'bootloader'
p1140
(dp1141
S'extended_fuses'
p1142
S'0xcb'
p1143
sS'high_fuses'
p1144
S'0xd8'
p1145
sS'low_fuses'
p1146
S'0xff'
p1147
sS'lock_bits'
p1148
S'0xef'
p1149
sS'file'
p1150
S'Caterina-Robot-Control.hex'
p1151
sS'path'
p1152
S'caterina-Arduino_Robot'
p1153
sS'unlock_bits'
p1154
S'0xff'
p1155
ssS'upload'
p1156
(dp1157
S'speed'
p1158
S'57600'
p1159
sS'maximum_size'
p1160
S'28672'
p1161
sS'protocol'
p1162
S'avr109'
p1163
sS'disable_flushing'
p1164
S'true'
p1165
ssS'build'
p1166
(dp1167
S'core'
p1168
S'robot'
p1169
sS'f_cpu'
p1170
S'16000000L'
p1171
sS'vid'
p1172
S'0x2341'
p1173
sS'pid'
p1174
S'0x8038'
p1175
sS'variant'
p1176
S'robot_control'
p1177
sS'mcu'
p1178
S'atmega32u4'
p1179
ssS'name'
p1180
S'Arduino Robot Control'
p1181
sg149
S'/usr/share/arduino/hardware/arduino'
p1182
saa(lp1183
S'robotMotor'
p1184
a(dp1185
S'bootloader'
p1186
(dp1187
S'extended_fuses'
p1188
S'0xcb'
p1189
sS'high_fuses'
p1190
S'0xd8'
p1191
sS'low_fuses'
p1192
S'0xff'
p1193
sS'lock_bits'
p1194
S'0xef'
p1195
sS'file'
p1196
S'Caterina-Robot-Motor.hex'
p1197
sS'path'
p1198
S'caterina-Arduino_Robot'
p1199
sS'unlock_bits'
p1200
S'0xff'
p1201
ssS'upload'
p1202
(dp1203
S'speed'
p1204
S'57600'
p1205
sS'maximum_size'
p1206
S'28672'
p1207
sS'protocol'
p1208
S'avr109'
p1209
sS'disable_flushing'
p1210
S'true'
p1211
ssS'build'
p1212
(dp1213
S'core'
p1214
S'robot'
p1215
sS'f_cpu'
p1216
S'16000000L'
p1217
sS'vid'
p1218
S'0x2341'
p1219
sS'pid'
p1220
S'0x8039'
p1221
sS'variant'
p1222
S'robot_motor'
p1223
sS'mcu'
p1224
S'atmega32u4'
p1225
ssS'name'
p1226
S'Arduino Robot Motor'
p1227
sg149
S'/usr/share/arduino/hardware/arduino'
p1228
saatp1229
Rp1230
(dp1231
S'default'
p1232
S'uno'
p1233
sbtp1234
a(S'used_libs'
p1235
(lp1236
S'/usr/share/arduino/hardware/arduino/cores/arduino'
p1237
aS'lib/ros_lib'
p1238
atp1239
a(S'make'
p1240
S'/usr/share/arduino/hardware/tools/avr/bin/make'
p1241
tp1242
a(S'arduino_libraries_dir'
p1243
S'/usr/share/arduino/libraries'
p1244
tp1245
a(S'cc'
p1246
S'/usr/share/arduino/hardware/tools/avr/bin/avr-gcc'
p1247
tp1248
a(S'cflags'
p1249
g2
(g3
g4
(lp1250
tp1251
Rp1252
tp1253
a(S'cxxflags'
p1254
g2
(g3
g4
(lp1255
S'-fno-exceptions'
p1256
atp1257
Rp1258
tp1259
a(S'arduino_variants_dir'
p1260
S'/usr/share/arduino/hardware/arduino/variants'
p1261
tp1262
a(S'stty'
p1263
S'/bin/stty'
p1264
tp1265
a(S'version.txt'
p1266
S'/usr/share/arduino/lib/version.txt'
p1267
tp1268
a(S'arduino_core_dir'
p1269
g1237
tp1270
a(S'boards.txt'
p1271
(lp1272
S'/usr/share/arduino/hardware/arduino/boards.txt'
p1273
atp1274
a(S'avrdude.conf'
p1275
S'/usr/share/arduino/hardware/tools/avrdude.conf'
p1276
tp1277
a(g85
g2
(g3
g4
(lp1278
S'.build/uno/src/dependencies.d'
p1279
aS'.build/uno/arduino/dependencies.d'
p1280
aS'.build/uno/ros_lib/dependencies.d'
p1281
atp1282
Rp1283
tp1284
a.