(lp0
(S'cppflags'
p1
ccopy_reg
_reconstructor
p2
(cino.utils
SpaceList
p3
c__builtin__
list
p4
(lp5
S'-mmcu=atmega328p'
p6
aS'-DF_CPU=16000000L'
p7
aS'-DARDUINO=105'
p8
aS'-I/usr/share/arduino/hardware/arduino/cores/arduino'
p9
aS'-ffunction-sections'
p10
aS'-fdata-sections'
p11
aS'-g'
p12
aS'-Os'
p13
aS'-w'
p14
aS'-I/usr/share/arduino/hardware/arduino/variants/standard'
p15
aS'-I/usr/share/arduino/hardware/arduino/cores/arduino'
p16
aS'-I/usr/share/arduino/hardware/arduino/cores/arduino/avr-libc'
p17
aS'-Ilib/ros_lib'
p18
aS'-Ilib/ros_lib/roscpp'
p19
aS'-Ilib/ros_lib/pcl_msgs'
p20
aS'-Ilib/ros_lib/map_msgs'
p21
aS'-Ilib/ros_lib/topic_tools'
p22
aS'-Ilib/ros_lib/dynamic_reconfigure'
p23
aS'-Ilib/ros_lib/actionlib'
p24
aS'-Ilib/ros_lib/stereo_msgs'
p25
aS'-Ilib/ros_lib/rosgraph_msgs'
p26
aS'-Ilib/ros_lib/nav_msgs'
p27
aS'-Ilib/ros_lib/ros_essentials_cpp'
p28
aS'-Ilib/ros_lib/smach_msgs'
p29
aS'-Ilib/ros_lib/sensor_msgs'
p30
aS'-Ilib/ros_lib/motors'
p31
aS'-Ilib/ros_lib/laser_assembler'
p32
aS'-Ilib/ros_lib/actionlib_tutorials'
p33
aS'-Ilib/ros_lib/actionlib_msgs'
p34
aS'-Ilib/ros_lib/turtle_actionlib'
p35
aS'-Ilib/ros_lib/std_msgs'
p36
aS'-Ilib/ros_lib/polled_camera'
p37
aS'-Ilib/ros_lib/rospy_tutorials'
p38
aS'-Ilib/ros_lib/geometry_msgs'
p39
aS'-Ilib/ros_lib/trajectory_msgs'
p40
aS'-Ilib/ros_lib/nodelet'
p41
aS'-Ilib/ros_lib/diagnostic_msgs'
p42
aS'-Ilib/ros_lib/tf'
p43
aS'-Ilib/ros_lib/roscpp_tutorials'
p44
aS'-Ilib/ros_lib/gazebo_msgs'
p45
aS'-Ilib/ros_lib/motor_control'
p46
aS'-Ilib/ros_lib/tests'
p47
aS'-Ilib/ros_lib/theora_image_transport'
p48
aS'-Ilib/ros_lib/visualization_msgs'
p49
aS'-Ilib/ros_lib/tf2_msgs'
p50
aS'-Ilib/ros_lib/control_toolbox'
p51
aS'-Ilib/ros_lib/shape_msgs'
p52
aS'-Ilib/ros_lib/controller_manager_msgs'
p53
aS'-Ilib/ros_lib/rosserial_arduino'
p54
aS'-Ilib/ros_lib/control_msgs'
p55
aS'-Ilib/ros_lib/bond'
p56
aS'-Ilib/ros_lib/std_srvs'
p57
aS'-Ilib/ros_lib/rosserial_msgs'
p58
aS'-Ilib/ros_lib/ros'
p59
aS'-Ilib/ros_lib/turtlesim'
p60
aS'-Ilib/ros_lib/tests/float64_test'
p61
aS'-Ilib/ros_lib/tests/array_test'
p62
aS'-Ilib/ros_lib/tests/time_test'
p63
atp64
Rp65
tp66
a(S'version.txt'
p67
S'/usr/share/arduino/lib/version.txt'
p68
tp69
a(S'used_libs'
p70
(lp71
S'/usr/share/arduino/hardware/arduino/cores/arduino'
p72
aS'lib/ros_lib'
p73
atp74
a(S'cc'
p75
S'/usr/share/arduino/hardware/tools/avr/bin/avr-gcc'
p76
tp77
a(S'make'
p78
S'/usr/share/arduino/hardware/tools/avr/bin/make'
p79
tp80
a(S'build_dir'
p81
S'.build/uno'
p82
tp83
a(S'arduino_core_dir'
p84
g72
tp85
a(S'boards.txt'
p86
(lp87
S'/usr/share/arduino/hardware/arduino/boards.txt'
p88
atp89
a(S'cxxflags'
p90
g2
(g3
g4
(lp91
S'-fno-exceptions'
p92
atp93
Rp94
tp95
a(S'arduino_variants_dir'
p96
S'/usr/share/arduino/hardware/arduino/variants'
p97
tp98
a(S'deps'
p99
g2
(g3
g4
(lp100
S'.build/uno/src/dependencies.d'
p101
aS'.build/uno/arduino/dependencies.d'
p102
aS'.build/uno/ros_lib/dependencies.d'
p103
atp104
Rp105
tp106
a(S'ar'
p107
S'/usr/share/arduino/hardware/tools/avr/bin/avr-ar'
p108
tp109
a(S'names'
p110
(dp111
S'cpp'
p112
S'%s.cpp'
p113
sS'obj'
p114
S'%s.o'
p115
sg99
S'%s.d'
p116
sS'lib'
p117
S'lib%s.a'
p118
stp119
a(S'cflags'
p120
g2
(g3
g4
(lp121
tp122
Rp123
tp124
a(S'ldflags'
p125
g2
(g3
g4
(lp126
g6
aS'-Wl,-Os'
p127
aS'-Wl,--gc-sections'
p128
atp129
Rp130
tp131
a(S'arduino_libraries_dir'
p132
S'/usr/share/arduino/libraries'
p133
tp134
a(S'arduino_lib_version'
p135
g2
(cino.environment
Version
p136
c__builtin__
tuple
p137
(I1
I0
I5
tp138
tp139
Rp140
tp141
a(S'objcopy'
p142
S'/usr/share/arduino/hardware/tools/avr/bin/avr-objcopy'
p143
tp144
a(S'board_models'
p145
cino.environment
BoardModels
p146
((lp147
(lp148
S'uno'
p149
a(dp150
S'build'
p151
(dp152
S'core'
p153
S'arduino'
p154
sS'mcu'
p155
S'atmega328p'
p156
sS'f_cpu'
p157
S'16000000L'
p158
sS'variant'
p159
S'standard'
p160
ssS'bootloader'
p161
(dp162
S'extended_fuses'
p163
S'0xfd'
p164
sS'high_fuses'
p165
S'0xde'
p166
sS'low_fuses'
p167
S'0xff'
p168
sS'lock_bits'
p169
S'0xcf'
p170
sS'file'
p171
S'optiboot_atmega328.hex'
p172
sS'path'
p173
S'optiboot'
p174
sS'unlock_bits'
p175
S'0xff'
p176
ssS'upload'
p177
(dp178
S'speed'
p179
S'115200'
p180
sS'maximum_size'
p181
S'32256'
p182
sS'protocol'
p183
S'arduino'
p184
ssS'name'
p185
S'Arduino Uno'
p186
sS'_coredir'
p187
S'/usr/share/arduino/hardware/arduino'
p188
saa(lp189
S'atmega328'
p190
a(dp191
S'build'
p192
(dp193
S'core'
p194
S'arduino'
p195
sS'mcu'
p196
S'atmega328p'
p197
sS'f_cpu'
p198
S'16000000L'
p199
sS'variant'
p200
S'standard'
p201
ssS'bootloader'
p202
(dp203
S'extended_fuses'
p204
S'0xfd'
p205
sS'high_fuses'
p206
S'0xDA'
p207
sS'low_fuses'
p208
S'0xFF'
p209
sS'lock_bits'
p210
S'0xcf'
p211
sS'file'
p212
S'ATmegaBOOT_168_atmega328.hex'
p213
sS'path'
p214
S'atmega'
p215
sS'unlock_bits'
p216
S'0xff'
p217
ssS'upload'
p218
(dp219
S'speed'
p220
S'57600'
p221
sS'maximum_size'
p222
S'30720'
p223
sS'protocol'
p224
S'arduino'
p225
ssS'name'
p226
S'Arduino Duemilanove w/ ATmega328'
p227
sg187
S'/usr/share/arduino/hardware/arduino'
p228
saa(lp229
S'diecimila'
p230
a(dp231
S'build'
p232
(dp233
S'core'
p234
S'arduino'
p235
sS'mcu'
p236
S'atmega168'
p237
sS'f_cpu'
p238
S'16000000L'
p239
sS'variant'
p240
S'standard'
p241
ssS'bootloader'
p242
(dp243
S'extended_fuses'
p244
S'0xf8'
p245
sS'high_fuses'
p246
S'0xdd'
p247
sS'low_fuses'
p248
S'0xff'
p249
sS'lock_bits'
p250
S'0xcf'
p251
sS'file'
p252
S'ATmegaBOOT_168_diecimila.hex'
p253
sS'path'
p254
S'atmega'
p255
sS'unlock_bits'
p256
S'0xff'
p257
ssS'upload'
p258
(dp259
S'speed'
p260
S'19200'
p261
sS'maximum_size'
p262
S'14336'
p263
sS'protocol'
p264
S'arduino'
p265
ssS'name'
p266
S'Arduino Diecimila or Duemilanove w/ ATmega168'
p267
sg187
S'/usr/share/arduino/hardware/arduino'
p268
saa(lp269
S'nano328'
p270
a(dp271
S'build'
p272
(dp273
S'core'
p274
S'arduino'
p275
sS'mcu'
p276
S'atmega328p'
p277
sS'f_cpu'
p278
S'16000000L'
p279
sS'variant'
p280
S'eightanaloginputs'
p281
ssS'bootloader'
p282
(dp283
S'extended_fuses'
p284
S'0xfd'
p285
sS'high_fuses'
p286
S'0xDA'
p287
sS'low_fuses'
p288
S'0xFF'
p289
sS'lock_bits'
p290
S'0xcf'
p291
sS'file'
p292
S'ATmegaBOOT_168_atmega328.hex'
p293
sS'path'
p294
S'atmega'
p295
sS'unlock_bits'
p296
S'0xff'
p297
ssS'upload'
p298
(dp299
S'speed'
p300
S'57600'
p301
sS'maximum_size'
p302
S'30720'
p303
sS'protocol'
p304
S'arduino'
p305
ssS'name'
p306
S'Arduino Nano w/ ATmega328'
p307
sg187
S'/usr/share/arduino/hardware/arduino'
p308
saa(lp309
S'nano'
p310
a(dp311
S'build'
p312
(dp313
S'core'
p314
S'arduino'
p315
sS'mcu'
p316
S'atmega168'
p317
sS'f_cpu'
p318
S'16000000L'
p319
sS'variant'
p320
S'eightanaloginputs'
p321
ssS'bootloader'
p322
(dp323
S'extended_fuses'
p324
S'0xf8'
p325
sS'high_fuses'
p326
S'0xdd'
p327
sS'low_fuses'
p328
S'0xff'
p329
sS'lock_bits'
p330
S'0xcf'
p331
sS'file'
p332
S'ATmegaBOOT_168_diecimila.hex'
p333
sS'path'
p334
S'atmega'
p335
sS'unlock_bits'
p336
S'0xff'
p337
ssS'upload'
p338
(dp339
S'speed'
p340
S'19200'
p341
sS'maximum_size'
p342
S'14336'
p343
sS'protocol'
p344
S'arduino'
p345
ssS'name'
p346
S'Arduino Nano w/ ATmega168'
p347
sg187
S'/usr/share/arduino/hardware/arduino'
p348
saa(lp349
S'mega2560'
p350
a(dp351
S'build'
p352
(dp353
S'core'
p354
S'arduino'
p355
sS'mcu'
p356
S'atmega2560'
p357
sS'f_cpu'
p358
S'16000000L'
p359
sS'variant'
p360
S'mega'
p361
ssS'bootloader'
p362
(dp363
S'extended_fuses'
p364
S'0xFD'
p365
sS'high_fuses'
p366
S'0xD8'
p367
sS'low_fuses'
p368
S'0xFF'
p369
sS'lock_bits'
p370
S'0xcf'
p371
sS'file'
p372
S'stk500boot_v2_mega2560.hex'
p373
sS'path'
p374
S'stk500v2'
p375
sS'unlock_bits'
p376
S'0xff'
p377
ssS'upload'
p378
(dp379
S'speed'
p380
S'115200'
p381
sS'maximum_size'
p382
S'258048'
p383
sS'protocol'
p384
S'wiring'
p385
ssS'name'
p386
S'Arduino Mega 2560 or Mega ADK'
p387
sg187
S'/usr/share/arduino/hardware/arduino'
p388
saa(lp389
S'mega'
p390
a(dp391
S'build'
p392
(dp393
S'core'
p394
S'arduino'
p395
sS'mcu'
p396
S'atmega1280'
p397
sS'f_cpu'
p398
S'16000000L'
p399
sS'variant'
p400
S'mega'
p401
ssS'bootloader'
p402
(dp403
S'extended_fuses'
p404
S'0xF5'
p405
sS'high_fuses'
p406
S'0xDA'
p407
sS'low_fuses'
p408
S'0xFF'
p409
sS'lock_bits'
p410
S'0xcf'
p411
sS'file'
p412
S'ATmegaBOOT_168_atmega1280.hex'
p413
sS'path'
p414
S'atmega'
p415
sS'unlock_bits'
p416
S'0xff'
p417
ssS'upload'
p418
(dp419
S'speed'
p420
S'57600'
p421
sS'maximum_size'
p422
S'126976'
p423
sS'protocol'
p424
S'arduino'
p425
ssS'name'
p426
S'Arduino Mega (ATmega1280)'
p427
sg187
S'/usr/share/arduino/hardware/arduino'
p428
saa(lp429
S'leonardo'
p430
a(dp431
S'build'
p432
(dp433
S'core'
p434
S'arduino'
p435
sS'f_cpu'
p436
S'16000000L'
p437
sS'vid'
p438
S'0x2341'
p439
sS'pid'
p440
S'0x8036'
p441
sS'variant'
p442
S'leonardo'
p443
sS'mcu'
p444
S'atmega32u4'
p445
ssS'bootloader'
p446
(dp447
S'extended_fuses'
p448
S'0xcb'
p449
sS'high_fuses'
p450
S'0xd8'
p451
sS'low_fuses'
p452
S'0xff'
p453
sS'lock_bits'
p454
S'0xef'
p455
sS'file'
p456
S'Caterina-Leonardo.hex'
p457
sS'path'
p458
S'caterina'
p459
sS'unlock_bits'
p460
S'0xff'
p461
ssS'upload'
p462
(dp463
S'speed'
p464
S'57600'
p465
sS'maximum_size'
p466
S'28672'
p467
sS'protocol'
p468
S'avr109'
p469
sS'disable_flushing'
p470
S'true'
p471
ssS'name'
p472
S'Arduino Leonardo'
p473
sg187
S'/usr/share/arduino/hardware/arduino'
p474
saa(lp475
S'esplora'
p476
a(dp477
S'build'
p478
(dp479
S'core'
p480
S'arduino'
p481
sS'f_cpu'
p482
S'16000000L'
p483
sS'vid'
p484
S'0x2341'
p485
sS'pid'
p486
S'0x803C'
p487
sS'variant'
p488
S'leonardo'
p489
sS'mcu'
p490
S'atmega32u4'
p491
ssS'bootloader'
p492
(dp493
S'extended_fuses'
p494
S'0xcb'
p495
sS'high_fuses'
p496
S'0xd8'
p497
sS'low_fuses'
p498
S'0xff'
p499
sS'lock_bits'
p500
S'0xef'
p501
sS'file'
p502
S'Caterina-Esplora.hex'
p503
sS'path'
p504
S'caterina'
p505
sS'unlock_bits'
p506
S'0xff'
p507
ssS'upload'
p508
(dp509
S'speed'
p510
S'57600'
p511
sS'maximum_size'
p512
S'28672'
p513
sS'protocol'
p514
S'avr109'
p515
sS'disable_flushing'
p516
S'true'
p517
ssS'name'
p518
S'Arduino Esplora'
p519
sg187
S'/usr/share/arduino/hardware/arduino'
p520
saa(lp521
S'micro'
p522
a(dp523
S'build'
p524
(dp525
S'core'
p526
S'arduino'
p527
sS'f_cpu'
p528
S'16000000L'
p529
sS'vid'
p530
S'0x2341'
p531
sS'pid'
p532
S'0x8037'
p533
sS'variant'
p534
S'micro'
p535
sS'mcu'
p536
S'atmega32u4'
p537
ssS'bootloader'
p538
(dp539
S'extended_fuses'
p540
S'0xcb'
p541
sS'high_fuses'
p542
S'0xd8'
p543
sS'low_fuses'
p544
S'0xff'
p545
sS'lock_bits'
p546
S'0xef'
p547
sS'file'
p548
S'Caterina-Micro.hex'
p549
sS'path'
p550
S'caterina'
p551
sS'unlock_bits'
p552
S'0xff'
p553
ssS'upload'
p554
(dp555
S'speed'
p556
S'57600'
p557
sS'maximum_size'
p558
S'28672'
p559
sS'protocol'
p560
S'avr109'
p561
sS'disable_flushing'
p562
S'true'
p563
ssS'name'
p564
S'Arduino Micro'
p565
sg187
S'/usr/share/arduino/hardware/arduino'
p566
saa(lp567
S'mini328'
p568
a(dp569
S'build'
p570
(dp571
S'core'
p572
S'arduino'
p573
sS'mcu'
p574
S'atmega328p'
p575
sS'f_cpu'
p576
S'16000000L'
p577
sS'variant'
p578
S'eightanaloginputs'
p579
ssS'bootloader'
p580
(dp581
S'extended_fuses'
p582
S'0xfd'
p583
sS'high_fuses'
p584
S'0xd8'
p585
sS'low_fuses'
p586
S'0xff'
p587
sS'lock_bits'
p588
S'0xcf'
p589
sS'file'
p590
S'optiboot_atmega328-Mini.hex'
p591
sS'path'
p592
S'optiboot'
p593
sS'unlock_bits'
p594
S'0xff'
p595
ssS'upload'
p596
(dp597
S'speed'
p598
S'115200'
p599
sS'maximum_size'
p600
S'28672'
p601
sS'protocol'
p602
S'arduino'
p603
ssS'name'
p604
S'Arduino Mini w/ ATmega328'
p605
sg187
S'/usr/share/arduino/hardware/arduino'
p606
saa(lp607
S'mini'
p608
a(dp609
S'build'
p610
(dp611
S'core'
p612
S'arduino'
p613
sS'mcu'
p614
S'atmega168'
p615
sS'f_cpu'
p616
S'16000000L'
p617
sS'variant'
p618
S'eightanaloginputs'
p619
ssS'bootloader'
p620
(dp621
S'extended_fuses'
p622
S'0xf8'
p623
sS'high_fuses'
p624
S'0xdd'
p625
sS'low_fuses'
p626
S'0xff'
p627
sS'lock_bits'
p628
S'0xcf'
p629
sS'file'
p630
S'ATmegaBOOT_168_ng.hex'
p631
sS'path'
p632
S'atmega'
p633
sS'unlock_bits'
p634
S'0xff'
p635
ssS'upload'
p636
(dp637
S'speed'
p638
S'19200'
p639
sS'maximum_size'
p640
S'14336'
p641
sS'protocol'
p642
S'arduino'
p643
ssS'name'
p644
S'Arduino Mini w/ ATmega168'
p645
sg187
S'/usr/share/arduino/hardware/arduino'
p646
saa(lp647
S'ethernet'
p648
a(dp649
S'build'
p650
(dp651
S'f_cpu'
p652
S'16000000L'
p653
sS'mcu'
p654
S'atmega328p'
p655
sS'variant'
p656
S'standard'
p657
sS'core'
p658
S'arduino'
p659
ssS'bootloader'
p660
(dp661
S'extended_fuses'
p662
S'0xfd'
p663
sS'high_fuses'
p664
S'0xde'
p665
sS'low_fuses'
p666
S'0xff'
p667
sS'lock_bits'
p668
S'0xcf'
p669
sS'file'
p670
S'optiboot_atmega328.hex'
p671
sS'path'
p672
S'optiboot'
p673
sS'unlock_bits'
p674
S'0xff'
p675
ssS'upload'
p676
(dp677
S'speed'
p678
S'115200'
p679
sS'maximum_size'
p680
S'32256'
p681
sS'protocol'
p682
S'arduino'
p683
ssS'name'
p684
S'Arduino Ethernet'
p685
sg187
S'/usr/share/arduino/hardware/arduino'
p686
saa(lp687
S'fio'
p688
a(dp689
S'build'
p690
(dp691
S'core'
p692
S'arduino'
p693
sS'mcu'
p694
S'atmega328p'
p695
sS'f_cpu'
p696
S'8000000L'
p697
sS'variant'
p698
S'eightanaloginputs'
p699
ssS'bootloader'
p700
(dp701
S'extended_fuses'
p702
S'0xfd'
p703
sS'high_fuses'
p704
S'0xDA'
p705
sS'low_fuses'
p706
S'0xFF'
p707
sS'lock_bits'
p708
S'0xcf'
p709
sS'file'
p710
S'ATmegaBOOT_168_atmega328_pro_8MHz.hex'
p711
sS'path'
p712
S'arduino:atmega'
p713
sS'unlock_bits'
p714
S'0xff'
p715
ssS'upload'
p716
(dp717
S'speed'
p718
S'57600'
p719
sS'maximum_size'
p720
S'30720'
p721
sS'protocol'
p722
S'arduino'
p723
ssS'name'
p724
S'Arduino Fio'
p725
sg187
S'/usr/share/arduino/hardware/arduino'
p726
saa(lp727
S'bt328'
p728
a(dp729
S'build'
p730
(dp731
S'core'
p732
S'arduino'
p733
sS'mcu'
p734
S'atmega328p'
p735
sS'f_cpu'
p736
S'16000000L'
p737
sS'variant'
p738
S'eightanaloginputs'
p739
ssS'bootloader'
p740
(dp741
S'extended_fuses'
p742
S'0xfd'
p743
sS'high_fuses'
p744
S'0xd8'
p745
sS'low_fuses'
p746
S'0xff'
p747
sS'lock_bits'
p748
S'0xcf'
p749
sS'file'
p750
S'ATmegaBOOT_168_atmega328_bt.hex'
p751
sS'path'
p752
S'bt'
p753
sS'unlock_bits'
p754
S'0xff'
p755
ssS'upload'
p756
(dp757
S'speed'
p758
S'19200'
p759
sS'maximum_size'
p760
S'28672'
p761
sS'protocol'
p762
S'arduino'
p763
sS'disable_flushing'
p764
S'true'
p765
ssS'name'
p766
S'Arduino BT w/ ATmega328'
p767
sg187
S'/usr/share/arduino/hardware/arduino'
p768
saa(lp769
S'bt'
p770
a(dp771
S'build'
p772
(dp773
S'core'
p774
S'arduino'
p775
sS'mcu'
p776
S'atmega168'
p777
sS'f_cpu'
p778
S'16000000L'
p779
sS'variant'
p780
S'eightanaloginputs'
p781
ssS'bootloader'
p782
(dp783
S'extended_fuses'
p784
S'0xf8'
p785
sS'high_fuses'
p786
S'0xdd'
p787
sS'low_fuses'
p788
S'0xff'
p789
sS'lock_bits'
p790
S'0xcf'
p791
sS'file'
p792
S'ATmegaBOOT_168.hex'
p793
sS'path'
p794
S'bt'
p795
sS'unlock_bits'
p796
S'0xff'
p797
ssS'upload'
p798
(dp799
S'speed'
p800
S'19200'
p801
sS'maximum_size'
p802
S'14336'
p803
sS'protocol'
p804
S'arduino'
p805
sS'disable_flushing'
p806
S'true'
p807
ssS'name'
p808
S'Arduino BT w/ ATmega168'
p809
sg187
S'/usr/share/arduino/hardware/arduino'
p810
saa(lp811
S'LilyPadUSB'
p812
a(dp813
S'build'
p814
(dp815
S'core'
p816
S'arduino'
p817
sS'f_cpu'
p818
S'8000000L'
p819
sS'vid'
p820
S'0x1B4F'
p821
sS'pid'
p822
S'0x9208'
p823
sS'variant'
p824
S'leonardo'
p825
sS'mcu'
p826
S'atmega32u4'
p827
ssS'bootloader'
p828
(dp829
S'extended_fuses'
p830
S'0xce'
p831
sS'high_fuses'
p832
S'0xd8'
p833
sS'low_fuses'
p834
S'0xff'
p835
sS'lock_bits'
p836
S'0xef'
p837
sS'file'
p838
S'Caterina-LilyPadUSB.hex'
p839
sS'path'
p840
S'caterina-LilyPadUSB'
p841
sS'unlock_bits'
p842
S'0xff'
p843
ssS'upload'
p844
(dp845
S'speed'
p846
S'57600'
p847
sS'maximum_size'
p848
S'28672'
p849
sS'protocol'
p850
S'avr109'
p851
sS'disable_flushing'
p852
S'true'
p853
ssS'name'
p854
S'LilyPad Arduino USB'
p855
sg187
S'/usr/share/arduino/hardware/arduino'
p856
saa(lp857
S'lilypad328'
p858
a(dp859
S'build'
p860
(dp861
S'core'
p862
S'arduino'
p863
sS'mcu'
p864
S'atmega328p'
p865
sS'f_cpu'
p866
S'8000000L'
p867
sS'variant'
p868
S'standard'
p869
ssS'bootloader'
p870
(dp871
S'extended_fuses'
p872
S'0xfd'
p873
sS'high_fuses'
p874
S'0xDA'
p875
sS'low_fuses'
p876
S'0xFF'
p877
sS'lock_bits'
p878
S'0xcf'
p879
sS'file'
p880
S'ATmegaBOOT_168_atmega328_pro_8MHz.hex'
p881
sS'path'
p882
S'atmega'
p883
sS'unlock_bits'
p884
S'0xff'
p885
ssS'upload'
p886
(dp887
S'speed'
p888
S'57600'
p889
sS'maximum_size'
p890
S'30720'
p891
sS'protocol'
p892
S'arduino'
p893
ssS'name'
p894
S'LilyPad Arduino w/ ATmega328'
p895
sg187
S'/usr/share/arduino/hardware/arduino'
p896
saa(lp897
S'lilypad'
p898
a(dp899
S'build'
p900
(dp901
S'core'
p902
S'arduino'
p903
sS'mcu'
p904
S'atmega168'
p905
sS'f_cpu'
p906
S'8000000L'
p907
sS'variant'
p908
S'standard'
p909
ssS'bootloader'
p910
(dp911
S'extended_fuses'
p912
S'0xf8'
p913
sS'high_fuses'
p914
S'0xdd'
p915
sS'low_fuses'
p916
S'0xe2'
p917
sS'lock_bits'
p918
S'0xcf'
p919
sS'file'
p920
S'LilyPadBOOT_168.hex'
p921
sS'path'
p922
S'lilypad'
p923
sS'unlock_bits'
p924
S'0xff'
p925
ssS'upload'
p926
(dp927
S'speed'
p928
S'19200'
p929
sS'maximum_size'
p930
S'14336'
p931
sS'protocol'
p932
S'arduino'
p933
ssS'name'
p934
S'LilyPad Arduino w/ ATmega168'
p935
sg187
S'/usr/share/arduino/hardware/arduino'
p936
saa(lp937
S'pro5v328'
p938
a(dp939
S'build'
p940
(dp941
S'core'
p942
S'arduino'
p943
sS'mcu'
p944
S'atmega328p'
p945
sS'f_cpu'
p946
S'16000000L'
p947
sS'variant'
p948
S'standard'
p949
ssS'bootloader'
p950
(dp951
S'extended_fuses'
p952
S'0xfd'
p953
sS'high_fuses'
p954
S'0xDA'
p955
sS'low_fuses'
p956
S'0xFF'
p957
sS'lock_bits'
p958
S'0xcf'
p959
sS'file'
p960
S'ATmegaBOOT_168_atmega328.hex'
p961
sS'path'
p962
S'atmega'
p963
sS'unlock_bits'
p964
S'0xff'
p965
ssS'upload'
p966
(dp967
S'speed'
p968
S'57600'
p969
sS'maximum_size'
p970
S'30720'
p971
sS'protocol'
p972
S'arduino'
p973
ssS'name'
p974
S'Arduino Pro or Pro Mini (5V, 16 MHz) w/ ATmega328'
p975
sg187
S'/usr/share/arduino/hardware/arduino'
p976
saa(lp977
S'pro5v'
p978
a(dp979
S'build'
p980
(dp981
S'core'
p982
S'arduino'
p983
sS'mcu'
p984
S'atmega168'
p985
sS'f_cpu'
p986
S'16000000L'
p987
sS'variant'
p988
S'standard'
p989
ssS'bootloader'
p990
(dp991
S'extended_fuses'
p992
S'0xf8'
p993
sS'high_fuses'
p994
S'0xdd'
p995
sS'low_fuses'
p996
S'0xff'
p997
sS'lock_bits'
p998
S'0xcf'
p999
sS'file'
p1000
S'ATmegaBOOT_168_diecimila.hex'
p1001
sS'path'
p1002
S'atmega'
p1003
sS'unlock_bits'
p1004
S'0xff'
p1005
ssS'upload'
p1006
(dp1007
S'speed'
p1008
S'19200'
p1009
sS'maximum_size'
p1010
S'14336'
p1011
sS'protocol'
p1012
S'arduino'
p1013
ssS'name'
p1014
S'Arduino Pro or Pro Mini (5V, 16 MHz) w/ ATmega168'
p1015
sg187
S'/usr/share/arduino/hardware/arduino'
p1016
saa(lp1017
S'pro328'
p1018
a(dp1019
S'build'
p1020
(dp1021
S'core'
p1022
S'arduino'
p1023
sS'mcu'
p1024
S'atmega328p'
p1025
sS'f_cpu'
p1026
S'8000000L'
p1027
sS'variant'
p1028
S'standard'
p1029
ssS'bootloader'
p1030
(dp1031
S'extended_fuses'
p1032
S'0xfd'
p1033
sS'high_fuses'
p1034
S'0xDA'
p1035
sS'low_fuses'
p1036
S'0xFF'
p1037
sS'lock_bits'
p1038
S'0xcf'
p1039
sS'file'
p1040
S'ATmegaBOOT_168_atmega328_pro_8MHz.hex'
p1041
sS'path'
p1042
S'atmega'
p1043
sS'unlock_bits'
p1044
S'0xff'
p1045
ssS'upload'
p1046
(dp1047
S'speed'
p1048
S'57600'
p1049
sS'maximum_size'
p1050
S'30720'
p1051
sS'protocol'
p1052
S'arduino'
p1053
ssS'name'
p1054
S'Arduino Pro or Pro Mini (3.3V, 8 MHz) w/ ATmega328'
p1055
sg187
S'/usr/share/arduino/hardware/arduino'
p1056
saa(lp1057
S'pro'
p1058
a(dp1059
S'build'
p1060
(dp1061
S'core'
p1062
S'arduino'
p1063
sS'mcu'
p1064
S'atmega168'
p1065
sS'f_cpu'
p1066
S'8000000L'
p1067
sS'variant'
p1068
S'standard'
p1069
ssS'bootloader'
p1070
(dp1071
S'extended_fuses'
p1072
S'0xf8'
p1073
sS'high_fuses'
p1074
S'0xdd'
p1075
sS'low_fuses'
p1076
S'0xc6'
p1077
sS'lock_bits'
p1078
S'0xcf'
p1079
sS'file'
p1080
S'ATmegaBOOT_168_pro_8MHz.hex'
p1081
sS'path'
p1082
S'atmega'
p1083
sS'unlock_bits'
p1084
S'0xff'
p1085
ssS'upload'
p1086
(dp1087
S'speed'
p1088
S'19200'
p1089
sS'maximum_size'
p1090
S'14336'
p1091
sS'protocol'
p1092
S'arduino'
p1093
ssS'name'
p1094
S'Arduino Pro or Pro Mini (3.3V, 8 MHz) w/ ATmega168'
p1095
sg187
S'/usr/share/arduino/hardware/arduino'
p1096
saa(lp1097
S'atmega168'
p1098
a(dp1099
S'build'
p1100
(dp1101
S'core'
p1102
S'arduino'
p1103
sS'mcu'
p1104
S'atmega168'
p1105
sS'f_cpu'
p1106
S'16000000L'
p1107
sS'variant'
p1108
S'standard'
p1109
ssS'bootloader'
p1110
(dp1111
S'extended_fuses'
p1112
S'0xf8'
p1113
sS'high_fuses'
p1114
S'0xdd'
p1115
sS'low_fuses'
p1116
S'0xff'
p1117
sS'lock_bits'
p1118
S'0xcf'
p1119
sS'file'
p1120
S'ATmegaBOOT_168_ng.hex'
p1121
sS'path'
p1122
S'atmega'
p1123
sS'unlock_bits'
p1124
S'0xff'
p1125
ssS'upload'
p1126
(dp1127
S'speed'
p1128
S'19200'
p1129
sS'maximum_size'
p1130
S'14336'
p1131
sS'protocol'
p1132
S'arduino'
p1133
ssS'name'
p1134
S'Arduino NG or older w/ ATmega168'
p1135
sg187
S'/usr/share/arduino/hardware/arduino'
p1136
saa(lp1137
S'atmega8'
p1138
a(dp1139
S'build'
p1140
(dp1141
S'core'
p1142
S'arduino'
p1143
sS'mcu'
p1144
S'atmega8'
p1145
sS'f_cpu'
p1146
S'16000000L'
p1147
sS'variant'
p1148
S'standard'
p1149
ssS'bootloader'
p1150
(dp1151
S'high_fuses'
p1152
S'0xca'
p1153
sS'low_fuses'
p1154
S'0xdf'
p1155
sS'lock_bits'
p1156
S'0xcf'
p1157
sS'file'
p1158
S'ATmegaBOOT-prod-firmware-2009-11-07.hex'
p1159
sS'path'
p1160
S'atmega8'
p1161
sS'unlock_bits'
p1162
S'0xff'
p1163
ssS'upload'
p1164
(dp1165
S'speed'
p1166
S'19200'
p1167
sS'maximum_size'
p1168
S'7168'
p1169
sS'protocol'
p1170
S'arduino'
p1171
ssS'name'
p1172
S'Arduino NG or older w/ ATmega8'
p1173
sg187
S'/usr/share/arduino/hardware/arduino'
p1174
saa(lp1175
S'robotControl'
p1176
a(dp1177
S'build'
p1178
(dp1179
S'core'
p1180
S'robot'
p1181
sS'f_cpu'
p1182
S'16000000L'
p1183
sS'vid'
p1184
S'0x2341'
p1185
sS'pid'
p1186
S'0x8038'
p1187
sS'variant'
p1188
S'robot_control'
p1189
sS'mcu'
p1190
S'atmega32u4'
p1191
ssS'bootloader'
p1192
(dp1193
S'extended_fuses'
p1194
S'0xcb'
p1195
sS'high_fuses'
p1196
S'0xd8'
p1197
sS'low_fuses'
p1198
S'0xff'
p1199
sS'lock_bits'
p1200
S'0xef'
p1201
sS'file'
p1202
S'Caterina-Robot-Control.hex'
p1203
sS'path'
p1204
S'caterina-Arduino_Robot'
p1205
sS'unlock_bits'
p1206
S'0xff'
p1207
ssS'upload'
p1208
(dp1209
S'speed'
p1210
S'57600'
p1211
sS'maximum_size'
p1212
S'28672'
p1213
sS'protocol'
p1214
S'avr109'
p1215
sS'disable_flushing'
p1216
S'true'
p1217
ssS'name'
p1218
S'Arduino Robot Control'
p1219
sg187
S'/usr/share/arduino/hardware/arduino'
p1220
saa(lp1221
S'robotMotor'
p1222
a(dp1223
S'build'
p1224
(dp1225
S'core'
p1226
S'robot'
p1227
sS'f_cpu'
p1228
S'16000000L'
p1229
sS'vid'
p1230
S'0x2341'
p1231
sS'pid'
p1232
S'0x8039'
p1233
sS'variant'
p1234
S'robot_motor'
p1235
sS'mcu'
p1236
S'atmega32u4'
p1237
ssS'bootloader'
p1238
(dp1239
S'extended_fuses'
p1240
S'0xcb'
p1241
sS'high_fuses'
p1242
S'0xd8'
p1243
sS'low_fuses'
p1244
S'0xff'
p1245
sS'lock_bits'
p1246
S'0xef'
p1247
sS'file'
p1248
S'Caterina-Robot-Motor.hex'
p1249
sS'path'
p1250
S'caterina-Arduino_Robot'
p1251
sS'unlock_bits'
p1252
S'0xff'
p1253
ssS'upload'
p1254
(dp1255
S'speed'
p1256
S'57600'
p1257
sS'maximum_size'
p1258
S'28672'
p1259
sS'protocol'
p1260
S'avr109'
p1261
sS'disable_flushing'
p1262
S'true'
p1263
ssS'name'
p1264
S'Arduino Robot Motor'
p1265
sg187
S'/usr/share/arduino/hardware/arduino'
p1266
saatp1267
Rp1268
(dp1269
S'default'
p1270
S'uno'
p1271
sbtp1272
a(S'cxx'
p1273
S'/usr/share/arduino/hardware/tools/avr/bin/avr-g++'
p1274
tp1275
a.