(lp0
(S'cppflags'
p1
ccopy_reg
_reconstructor
p2
(cino.utils
SpaceList
p3
c__builtin__
list
p4
(lp5
S'-mmcu=atmega328p'
p6
aS'-DF_CPU=16000000L'
p7
aS'-DARDUINO=105'
p8
aS'-I/usr/share/arduino/hardware/arduino/cores/arduino'
p9
aS'-ffunction-sections'
p10
aS'-fdata-sections'
p11
aS'-g'
p12
aS'-Os'
p13
aS'-w'
p14
aS'-I/usr/share/arduino/hardware/arduino/variants/standard'
p15
aS'-I/usr/share/arduino/hardware/arduino/cores/arduino'
p16
aS'-I/usr/share/arduino/hardware/arduino/cores/arduino/avr-libc'
p17
aS'-Ilib/ros_lib'
p18
aS'-Ilib/ros_lib/nodelet'
p19
aS'-Ilib/ros_lib/controller_manager_msgs'
p20
aS'-Ilib/ros_lib/theora_image_transport'
p21
aS'-Ilib/ros_lib/rosserial_msgs'
p22
aS'-Ilib/ros_lib/std_srvs'
p23
aS'-Ilib/ros_lib/roscpp_tutorials'
p24
aS'-Ilib/ros_lib/rospy_tutorials'
p25
aS'-Ilib/ros_lib/visualization_msgs'
p26
aS'-Ilib/ros_lib/tf2_msgs'
p27
aS'-Ilib/ros_lib/rosserial_arduino'
p28
aS'-Ilib/ros_lib/std_msgs'
p29
aS'-Ilib/ros_lib/topic_tools'
p30
aS'-Ilib/ros_lib/nav_msgs'
p31
aS'-Ilib/ros_lib/tf'
p32
aS'-Ilib/ros_lib/laser_assembler'
p33
aS'-Ilib/ros_lib/ros'
p34
aS'-Ilib/ros_lib/turtle_actionlib'
p35
aS'-Ilib/ros_lib/sensor_msgs'
p36
aS'-Ilib/ros_lib/trajectory_msgs'
p37
aS'-Ilib/ros_lib/rosgraph_msgs'
p38
aS'-Ilib/ros_lib/tests'
p39
aS'-Ilib/ros_lib/control_msgs'
p40
aS'-Ilib/ros_lib/actionlib'
p41
aS'-Ilib/ros_lib/pcl_msgs'
p42
aS'-Ilib/ros_lib/diagnostic_msgs'
p43
aS'-Ilib/ros_lib/dynamic_reconfigure'
p44
aS'-Ilib/ros_lib/motor_control'
p45
aS'-Ilib/ros_lib/stereo_msgs'
p46
aS'-Ilib/ros_lib/polled_camera'
p47
aS'-Ilib/ros_lib/bond'
p48
aS'-Ilib/ros_lib/turtlesim'
p49
aS'-Ilib/ros_lib/control_toolbox'
p50
aS'-Ilib/ros_lib/roscpp'
p51
aS'-Ilib/ros_lib/actionlib_tutorials'
p52
aS'-Ilib/ros_lib/actionlib_msgs'
p53
aS'-Ilib/ros_lib/map_msgs'
p54
aS'-Ilib/ros_lib/shape_msgs'
p55
aS'-Ilib/ros_lib/gazebo_msgs'
p56
aS'-Ilib/ros_lib/smach_msgs'
p57
aS'-Ilib/ros_lib/geometry_msgs'
p58
aS'-Ilib/ros_lib/tests/time_test'
p59
aS'-Ilib/ros_lib/tests/array_test'
p60
aS'-Ilib/ros_lib/tests/float64_test'
p61
atp62
Rp63
tp64
a(S'cxx'
p65
S'/usr/share/arduino/hardware/tools/avr/bin/avr-g++'
p66
tp67
a(S'build_dir'
p68
S'.build/uno'
p69
tp70
a(S'avrdude'
p71
S'/usr/share/arduino/hardware/tools/avrdude'
p72
tp73
a(S'ar'
p74
S'/usr/share/arduino/hardware/tools/avr/bin/avr-ar'
p75
tp76
a(S'names'
p77
(dp78
S'cpp'
p79
S'%s.cpp'
p80
sS'obj'
p81
S'%s.o'
p82
sS'deps'
p83
S'%s.d'
p84
sS'lib'
p85
S'lib%s.a'
p86
stp87
a(S'ldflags'
p88
g2
(g3
g4
(lp89
g6
aS'-Wl,-Os'
p90
aS'-Wl,--gc-sections'
p91
atp92
Rp93
tp94
a(S'arduino_lib_version'
p95
g2
(cino.environment
Version
p96
c__builtin__
tuple
p97
(I1
I0
I5
tp98
tp99
Rp100
tp101
a(S'objcopy'
p102
S'/usr/share/arduino/hardware/tools/avr/bin/avr-objcopy'
p103
tp104
a(S'board_models'
p105
cino.environment
BoardModels
p106
((lp107
(lp108
S'uno'
p109
a(dp110
S'bootloader'
p111
(dp112
S'extended_fuses'
p113
S'0x05'
p114
sS'high_fuses'
p115
S'0xde'
p116
sS'low_fuses'
p117
S'0xff'
p118
sS'lock_bits'
p119
S'0x0F'
p120
sS'file'
p121
S'optiboot_atmega328.hex'
p122
sS'path'
p123
S'optiboot'
p124
sS'unlock_bits'
p125
S'0x3F'
p126
ssS'upload'
p127
(dp128
S'speed'
p129
S'115200'
p130
sS'maximum_size'
p131
S'32256'
p132
sS'protocol'
p133
S'arduino'
p134
ssS'build'
p135
(dp136
S'core'
p137
S'arduino'
p138
sS'mcu'
p139
S'atmega328p'
p140
sS'f_cpu'
p141
S'16000000L'
p142
sS'variant'
p143
S'standard'
p144
ssS'name'
p145
S'Arduino Uno'
p146
sS'_coredir'
p147
S'/usr/share/arduino/hardware/arduino'
p148
saa(lp149
S'atmega328'
p150
a(dp151
S'bootloader'
p152
(dp153
S'extended_fuses'
p154
S'0x05'
p155
sS'high_fuses'
p156
S'0xDA'
p157
sS'low_fuses'
p158
S'0xFF'
p159
sS'lock_bits'
p160
S'0x0F'
p161
sS'file'
p162
S'ATmegaBOOT_168_atmega328.hex'
p163
sS'path'
p164
S'atmega'
p165
sS'unlock_bits'
p166
S'0x3F'
p167
ssS'upload'
p168
(dp169
S'speed'
p170
S'57600'
p171
sS'maximum_size'
p172
S'30720'
p173
sS'protocol'
p174
S'arduino'
p175
ssS'build'
p176
(dp177
S'core'
p178
S'arduino'
p179
sS'mcu'
p180
S'atmega328p'
p181
sS'f_cpu'
p182
S'16000000L'
p183
sS'variant'
p184
S'standard'
p185
ssS'name'
p186
S'Arduino Duemilanove w/ ATmega328'
p187
sg147
S'/usr/share/arduino/hardware/arduino'
p188
saa(lp189
S'diecimila'
p190
a(dp191
S'bootloader'
p192
(dp193
S'extended_fuses'
p194
S'0x00'
p195
sS'high_fuses'
p196
S'0xdd'
p197
sS'low_fuses'
p198
S'0xff'
p199
sS'lock_bits'
p200
S'0x0F'
p201
sS'file'
p202
S'ATmegaBOOT_168_diecimila.hex'
p203
sS'path'
p204
S'atmega'
p205
sS'unlock_bits'
p206
S'0x3F'
p207
ssS'upload'
p208
(dp209
S'speed'
p210
S'19200'
p211
sS'maximum_size'
p212
S'14336'
p213
sS'protocol'
p214
S'arduino'
p215
ssS'build'
p216
(dp217
S'core'
p218
S'arduino'
p219
sS'mcu'
p220
S'atmega168'
p221
sS'f_cpu'
p222
S'16000000L'
p223
sS'variant'
p224
S'standard'
p225
ssS'name'
p226
S'Arduino Diecimila or Duemilanove w/ ATmega168'
p227
sg147
S'/usr/share/arduino/hardware/arduino'
p228
saa(lp229
S'nano328'
p230
a(dp231
S'bootloader'
p232
(dp233
S'extended_fuses'
p234
S'0x05'
p235
sS'high_fuses'
p236
S'0xDA'
p237
sS'low_fuses'
p238
S'0xFF'
p239
sS'lock_bits'
p240
S'0x0F'
p241
sS'file'
p242
S'ATmegaBOOT_168_atmega328.hex'
p243
sS'path'
p244
S'atmega'
p245
sS'unlock_bits'
p246
S'0x3F'
p247
ssS'upload'
p248
(dp249
S'speed'
p250
S'57600'
p251
sS'maximum_size'
p252
S'30720'
p253
sS'protocol'
p254
S'arduino'
p255
ssS'build'
p256
(dp257
S'core'
p258
S'arduino'
p259
sS'mcu'
p260
S'atmega328p'
p261
sS'f_cpu'
p262
S'16000000L'
p263
sS'variant'
p264
S'eightanaloginputs'
p265
ssS'name'
p266
S'Arduino Nano w/ ATmega328'
p267
sg147
S'/usr/share/arduino/hardware/arduino'
p268
saa(lp269
S'nano'
p270
a(dp271
S'bootloader'
p272
(dp273
S'extended_fuses'
p274
S'0x00'
p275
sS'high_fuses'
p276
S'0xdd'
p277
sS'low_fuses'
p278
S'0xff'
p279
sS'lock_bits'
p280
S'0x0F'
p281
sS'file'
p282
S'ATmegaBOOT_168_diecimila.hex'
p283
sS'path'
p284
S'atmega'
p285
sS'unlock_bits'
p286
S'0x3F'
p287
ssS'upload'
p288
(dp289
S'speed'
p290
S'19200'
p291
sS'maximum_size'
p292
S'14336'
p293
sS'protocol'
p294
S'arduino'
p295
ssS'build'
p296
(dp297
S'core'
p298
S'arduino'
p299
sS'mcu'
p300
S'atmega168'
p301
sS'f_cpu'
p302
S'16000000L'
p303
sS'variant'
p304
S'eightanaloginputs'
p305
ssS'name'
p306
S'Arduino Nano w/ ATmega168'
p307
sg147
S'/usr/share/arduino/hardware/arduino'
p308
saa(lp309
S'mega2560'
p310
a(dp311
S'bootloader'
p312
(dp313
S'extended_fuses'
p314
S'0xFD'
p315
sS'high_fuses'
p316
S'0xD8'
p317
sS'low_fuses'
p318
S'0xFF'
p319
sS'lock_bits'
p320
S'0x0F'
p321
sS'file'
p322
S'stk500boot_v2_mega2560.hex'
p323
sS'path'
p324
S'stk500v2'
p325
sS'unlock_bits'
p326
S'0x3F'
p327
ssS'upload'
p328
(dp329
S'speed'
p330
S'115200'
p331
sS'maximum_size'
p332
S'258048'
p333
sS'protocol'
p334
S'wiring'
p335
ssS'build'
p336
(dp337
S'core'
p338
S'arduino'
p339
sS'mcu'
p340
S'atmega2560'
p341
sS'f_cpu'
p342
S'16000000L'
p343
sS'variant'
p344
S'mega'
p345
ssS'name'
p346
S'Arduino Mega 2560 or Mega ADK'
p347
sg147
S'/usr/share/arduino/hardware/arduino'
p348
saa(lp349
S'mega'
p350
a(dp351
S'bootloader'
p352
(dp353
S'extended_fuses'
p354
S'0xF5'
p355
sS'high_fuses'
p356
S'0xDA'
p357
sS'low_fuses'
p358
S'0xFF'
p359
sS'lock_bits'
p360
S'0x0F'
p361
sS'file'
p362
S'ATmegaBOOT_168_atmega1280.hex'
p363
sS'path'
p364
S'atmega'
p365
sS'unlock_bits'
p366
S'0x3F'
p367
ssS'upload'
p368
(dp369
S'speed'
p370
S'57600'
p371
sS'maximum_size'
p372
S'126976'
p373
sS'protocol'
p374
S'arduino'
p375
ssS'build'
p376
(dp377
S'core'
p378
S'arduino'
p379
sS'mcu'
p380
S'atmega1280'
p381
sS'f_cpu'
p382
S'16000000L'
p383
sS'variant'
p384
S'mega'
p385
ssS'name'
p386
S'Arduino Mega (ATmega1280)'
p387
sg147
S'/usr/share/arduino/hardware/arduino'
p388
saa(lp389
S'leonardo'
p390
a(dp391
S'bootloader'
p392
(dp393
S'extended_fuses'
p394
S'0xcb'
p395
sS'high_fuses'
p396
S'0xd8'
p397
sS'low_fuses'
p398
S'0xff'
p399
sS'lock_bits'
p400
S'0x2F'
p401
sS'file'
p402
S'Caterina-Leonardo.hex'
p403
sS'path'
p404
S'caterina'
p405
sS'unlock_bits'
p406
S'0x3F'
p407
ssS'upload'
p408
(dp409
S'speed'
p410
S'57600'
p411
sS'maximum_size'
p412
S'28672'
p413
sS'protocol'
p414
S'avr109'
p415
sS'disable_flushing'
p416
S'true'
p417
ssS'build'
p418
(dp419
S'core'
p420
S'arduino'
p421
sS'f_cpu'
p422
S'16000000L'
p423
sS'vid'
p424
S'0x2341'
p425
sS'pid'
p426
S'0x8036'
p427
sS'variant'
p428
S'leonardo'
p429
sS'mcu'
p430
S'atmega32u4'
p431
ssS'name'
p432
S'Arduino Leonardo'
p433
sg147
S'/usr/share/arduino/hardware/arduino'
p434
saa(lp435
S'esplora'
p436
a(dp437
S'bootloader'
p438
(dp439
S'extended_fuses'
p440
S'0xcb'
p441
sS'high_fuses'
p442
S'0xd8'
p443
sS'low_fuses'
p444
S'0xff'
p445
sS'lock_bits'
p446
S'0x2F'
p447
sS'file'
p448
S'Caterina-Esplora.hex'
p449
sS'path'
p450
S'caterina'
p451
sS'unlock_bits'
p452
S'0x3F'
p453
ssS'upload'
p454
(dp455
S'speed'
p456
S'57600'
p457
sS'maximum_size'
p458
S'28672'
p459
sS'protocol'
p460
S'avr109'
p461
sS'disable_flushing'
p462
S'true'
p463
ssS'build'
p464
(dp465
S'core'
p466
S'arduino'
p467
sS'f_cpu'
p468
S'16000000L'
p469
sS'vid'
p470
S'0x2341'
p471
sS'pid'
p472
S'0x803C'
p473
sS'variant'
p474
S'leonardo'
p475
sS'mcu'
p476
S'atmega32u4'
p477
ssS'name'
p478
S'Arduino Esplora'
p479
sg147
S'/usr/share/arduino/hardware/arduino'
p480
saa(lp481
S'micro'
p482
a(dp483
S'bootloader'
p484
(dp485
S'extended_fuses'
p486
S'0xcb'
p487
sS'high_fuses'
p488
S'0xd8'
p489
sS'low_fuses'
p490
S'0xff'
p491
sS'lock_bits'
p492
S'0x2F'
p493
sS'file'
p494
S'Caterina-Micro.hex'
p495
sS'path'
p496
S'caterina'
p497
sS'unlock_bits'
p498
S'0x3F'
p499
ssS'upload'
p500
(dp501
S'speed'
p502
S'57600'
p503
sS'maximum_size'
p504
S'28672'
p505
sS'protocol'
p506
S'avr109'
p507
sS'disable_flushing'
p508
S'true'
p509
ssS'build'
p510
(dp511
S'core'
p512
S'arduino'
p513
sS'f_cpu'
p514
S'16000000L'
p515
sS'vid'
p516
S'0x2341'
p517
sS'pid'
p518
S'0x8037'
p519
sS'variant'
p520
S'micro'
p521
sS'mcu'
p522
S'atmega32u4'
p523
ssS'name'
p524
S'Arduino Micro'
p525
sg147
S'/usr/share/arduino/hardware/arduino'
p526
saa(lp527
S'mini328'
p528
a(dp529
S'bootloader'
p530
(dp531
S'extended_fuses'
p532
S'0x05'
p533
sS'high_fuses'
p534
S'0xd8'
p535
sS'low_fuses'
p536
S'0xff'
p537
sS'lock_bits'
p538
S'0x0F'
p539
sS'file'
p540
S'optiboot_atmega328-Mini.hex'
p541
sS'path'
p542
S'optiboot'
p543
sS'unlock_bits'
p544
S'0x3F'
p545
ssS'upload'
p546
(dp547
S'speed'
p548
S'115200'
p549
sS'maximum_size'
p550
S'28672'
p551
sS'protocol'
p552
S'arduino'
p553
ssS'build'
p554
(dp555
S'core'
p556
S'arduino'
p557
sS'mcu'
p558
S'atmega328p'
p559
sS'f_cpu'
p560
S'16000000L'
p561
sS'variant'
p562
S'eightanaloginputs'
p563
ssS'name'
p564
S'Arduino Mini w/ ATmega328'
p565
sg147
S'/usr/share/arduino/hardware/arduino'
p566
saa(lp567
S'mini'
p568
a(dp569
S'bootloader'
p570
(dp571
S'extended_fuses'
p572
S'0x00'
p573
sS'high_fuses'
p574
S'0xdd'
p575
sS'low_fuses'
p576
S'0xff'
p577
sS'lock_bits'
p578
S'0x0F'
p579
sS'file'
p580
S'ATmegaBOOT_168_ng.hex'
p581
sS'path'
p582
S'atmega'
p583
sS'unlock_bits'
p584
S'0x3F'
p585
ssS'upload'
p586
(dp587
S'speed'
p588
S'19200'
p589
sS'maximum_size'
p590
S'14336'
p591
sS'protocol'
p592
S'arduino'
p593
ssS'build'
p594
(dp595
S'core'
p596
S'arduino'
p597
sS'mcu'
p598
S'atmega168'
p599
sS'f_cpu'
p600
S'16000000L'
p601
sS'variant'
p602
S'eightanaloginputs'
p603
ssS'name'
p604
S'Arduino Mini w/ ATmega168'
p605
sg147
S'/usr/share/arduino/hardware/arduino'
p606
saa(lp607
S'ethernet'
p608
a(dp609
S'bootloader'
p610
(dp611
S'extended_fuses'
p612
S'0x05'
p613
sS'high_fuses'
p614
S'0xde'
p615
sS'low_fuses'
p616
S'0xff'
p617
sS'lock_bits'
p618
S'0x0F'
p619
sS'file'
p620
S'optiboot_atmega328.hex'
p621
sS'path'
p622
S'optiboot'
p623
sS'unlock_bits'
p624
S'0x3F'
p625
ssS'upload'
p626
(dp627
S'speed'
p628
S'115200'
p629
sS'maximum_size'
p630
S'32256'
p631
sS'protocol'
p632
S'arduino'
p633
ssS'build'
p634
(dp635
S'f_cpu'
p636
S'16000000L'
p637
sS'mcu'
p638
S'atmega328p'
p639
sS'variant'
p640
S'standard'
p641
sS'core'
p642
S'arduino'
p643
ssS'name'
p644
S'Arduino Ethernet'
p645
sg147
S'/usr/share/arduino/hardware/arduino'
p646
saa(lp647
S'fio'
p648
a(dp649
S'bootloader'
p650
(dp651
S'extended_fuses'
p652
S'0x05'
p653
sS'high_fuses'
p654
S'0xDA'
p655
sS'low_fuses'
p656
S'0xFF'
p657
sS'lock_bits'
p658
S'0x0F'
p659
sS'file'
p660
S'ATmegaBOOT_168_atmega328_pro_8MHz.hex'
p661
sS'path'
p662
S'arduino:atmega'
p663
sS'unlock_bits'
p664
S'0x3F'
p665
ssS'upload'
p666
(dp667
S'speed'
p668
S'57600'
p669
sS'maximum_size'
p670
S'30720'
p671
sS'protocol'
p672
S'arduino'
p673
ssS'build'
p674
(dp675
S'core'
p676
S'arduino'
p677
sS'mcu'
p678
S'atmega328p'
p679
sS'f_cpu'
p680
S'8000000L'
p681
sS'variant'
p682
S'eightanaloginputs'
p683
ssS'name'
p684
S'Arduino Fio'
p685
sg147
S'/usr/share/arduino/hardware/arduino'
p686
saa(lp687
S'bt328'
p688
a(dp689
S'bootloader'
p690
(dp691
S'extended_fuses'
p692
S'0x05'
p693
sS'high_fuses'
p694
S'0xd8'
p695
sS'low_fuses'
p696
S'0xff'
p697
sS'lock_bits'
p698
S'0x0F'
p699
sS'file'
p700
S'ATmegaBOOT_168_atmega328_bt.hex'
p701
sS'path'
p702
S'bt'
p703
sS'unlock_bits'
p704
S'0x3F'
p705
ssS'upload'
p706
(dp707
S'speed'
p708
S'19200'
p709
sS'maximum_size'
p710
S'28672'
p711
sS'protocol'
p712
S'arduino'
p713
sS'disable_flushing'
p714
S'true'
p715
ssS'build'
p716
(dp717
S'core'
p718
S'arduino'
p719
sS'mcu'
p720
S'atmega328p'
p721
sS'f_cpu'
p722
S'16000000L'
p723
sS'variant'
p724
S'eightanaloginputs'
p725
ssS'name'
p726
S'Arduino BT w/ ATmega328'
p727
sg147
S'/usr/share/arduino/hardware/arduino'
p728
saa(lp729
S'bt'
p730
a(dp731
S'bootloader'
p732
(dp733
S'extended_fuses'
p734
S'0x00'
p735
sS'high_fuses'
p736
S'0xdd'
p737
sS'low_fuses'
p738
S'0xff'
p739
sS'lock_bits'
p740
S'0x0F'
p741
sS'file'
p742
S'ATmegaBOOT_168.hex'
p743
sS'path'
p744
S'bt'
p745
sS'unlock_bits'
p746
S'0x3F'
p747
ssS'upload'
p748
(dp749
S'speed'
p750
S'19200'
p751
sS'maximum_size'
p752
S'14336'
p753
sS'protocol'
p754
S'arduino'
p755
sS'disable_flushing'
p756
S'true'
p757
ssS'build'
p758
(dp759
S'core'
p760
S'arduino'
p761
sS'mcu'
p762
S'atmega168'
p763
sS'f_cpu'
p764
S'16000000L'
p765
sS'variant'
p766
S'eightanaloginputs'
p767
ssS'name'
p768
S'Arduino BT w/ ATmega168'
p769
sg147
S'/usr/share/arduino/hardware/arduino'
p770
saa(lp771
S'LilyPadUSB'
p772
a(dp773
S'bootloader'
p774
(dp775
S'extended_fuses'
p776
S'0xce'
p777
sS'high_fuses'
p778
S'0xd8'
p779
sS'low_fuses'
p780
S'0xff'
p781
sS'lock_bits'
p782
S'0x2F'
p783
sS'file'
p784
S'Caterina-LilyPadUSB.hex'
p785
sS'path'
p786
S'caterina-LilyPadUSB'
p787
sS'unlock_bits'
p788
S'0x3F'
p789
ssS'upload'
p790
(dp791
S'speed'
p792
S'57600'
p793
sS'maximum_size'
p794
S'28672'
p795
sS'protocol'
p796
S'avr109'
p797
sS'disable_flushing'
p798
S'true'
p799
ssS'build'
p800
(dp801
S'core'
p802
S'arduino'
p803
sS'f_cpu'
p804
S'8000000L'
p805
sS'vid'
p806
S'0x1B4F'
p807
sS'pid'
p808
S'0x9208'
p809
sS'variant'
p810
S'leonardo'
p811
sS'mcu'
p812
S'atmega32u4'
p813
ssS'name'
p814
S'LilyPad Arduino USB'
p815
sg147
S'/usr/share/arduino/hardware/arduino'
p816
saa(lp817
S'lilypad328'
p818
a(dp819
S'bootloader'
p820
(dp821
S'extended_fuses'
p822
S'0x05'
p823
sS'high_fuses'
p824
S'0xDA'
p825
sS'low_fuses'
p826
S'0xFF'
p827
sS'lock_bits'
p828
S'0x0F'
p829
sS'file'
p830
S'ATmegaBOOT_168_atmega328_pro_8MHz.hex'
p831
sS'path'
p832
S'atmega'
p833
sS'unlock_bits'
p834
S'0x3F'
p835
ssS'upload'
p836
(dp837
S'speed'
p838
S'57600'
p839
sS'maximum_size'
p840
S'30720'
p841
sS'protocol'
p842
S'arduino'
p843
ssS'build'
p844
(dp845
S'core'
p846
S'arduino'
p847
sS'mcu'
p848
S'atmega328p'
p849
sS'f_cpu'
p850
S'8000000L'
p851
sS'variant'
p852
S'standard'
p853
ssS'name'
p854
S'LilyPad Arduino w/ ATmega328'
p855
sg147
S'/usr/share/arduino/hardware/arduino'
p856
saa(lp857
S'lilypad'
p858
a(dp859
S'bootloader'
p860
(dp861
S'extended_fuses'
p862
S'0x00'
p863
sS'high_fuses'
p864
S'0xdd'
p865
sS'low_fuses'
p866
S'0xe2'
p867
sS'lock_bits'
p868
S'0x0F'
p869
sS'file'
p870
S'LilyPadBOOT_168.hex'
p871
sS'path'
p872
S'lilypad'
p873
sS'unlock_bits'
p874
S'0x3F'
p875
ssS'upload'
p876
(dp877
S'speed'
p878
S'19200'
p879
sS'maximum_size'
p880
S'14336'
p881
sS'protocol'
p882
S'arduino'
p883
ssS'build'
p884
(dp885
S'core'
p886
S'arduino'
p887
sS'mcu'
p888
S'atmega168'
p889
sS'f_cpu'
p890
S'8000000L'
p891
sS'variant'
p892
S'standard'
p893
ssS'name'
p894
S'LilyPad Arduino w/ ATmega168'
p895
sg147
S'/usr/share/arduino/hardware/arduino'
p896
saa(lp897
S'pro5v328'
p898
a(dp899
S'bootloader'
p900
(dp901
S'extended_fuses'
p902
S'0x05'
p903
sS'high_fuses'
p904
S'0xDA'
p905
sS'low_fuses'
p906
S'0xFF'
p907
sS'lock_bits'
p908
S'0x0F'
p909
sS'file'
p910
S'ATmegaBOOT_168_atmega328.hex'
p911
sS'path'
p912
S'atmega'
p913
sS'unlock_bits'
p914
S'0x3F'
p915
ssS'upload'
p916
(dp917
S'speed'
p918
S'57600'
p919
sS'maximum_size'
p920
S'30720'
p921
sS'protocol'
p922
S'arduino'
p923
ssS'build'
p924
(dp925
S'core'
p926
S'arduino'
p927
sS'mcu'
p928
S'atmega328p'
p929
sS'f_cpu'
p930
S'16000000L'
p931
sS'variant'
p932
S'standard'
p933
ssS'name'
p934
S'Arduino Pro or Pro Mini (5V, 16 MHz) w/ ATmega328'
p935
sg147
S'/usr/share/arduino/hardware/arduino'
p936
saa(lp937
S'pro5v'
p938
a(dp939
S'bootloader'
p940
(dp941
S'extended_fuses'
p942
S'0x00'
p943
sS'high_fuses'
p944
S'0xdd'
p945
sS'low_fuses'
p946
S'0xff'
p947
sS'lock_bits'
p948
S'0x0F'
p949
sS'file'
p950
S'ATmegaBOOT_168_diecimila.hex'
p951
sS'path'
p952
S'atmega'
p953
sS'unlock_bits'
p954
S'0x3F'
p955
ssS'upload'
p956
(dp957
S'speed'
p958
S'19200'
p959
sS'maximum_size'
p960
S'14336'
p961
sS'protocol'
p962
S'arduino'
p963
ssS'build'
p964
(dp965
S'core'
p966
S'arduino'
p967
sS'mcu'
p968
S'atmega168'
p969
sS'f_cpu'
p970
S'16000000L'
p971
sS'variant'
p972
S'standard'
p973
ssS'name'
p974
S'Arduino Pro or Pro Mini (5V, 16 MHz) w/ ATmega168'
p975
sg147
S'/usr/share/arduino/hardware/arduino'
p976
saa(lp977
S'pro328'
p978
a(dp979
S'bootloader'
p980
(dp981
S'extended_fuses'
p982
S'0x05'
p983
sS'high_fuses'
p984
S'0xDA'
p985
sS'low_fuses'
p986
S'0xFF'
p987
sS'lock_bits'
p988
S'0x0F'
p989
sS'file'
p990
S'ATmegaBOOT_168_atmega328_pro_8MHz.hex'
p991
sS'path'
p992
S'atmega'
p993
sS'unlock_bits'
p994
S'0x3F'
p995
ssS'upload'
p996
(dp997
S'speed'
p998
S'57600'
p999
sS'maximum_size'
p1000
S'30720'
p1001
sS'protocol'
p1002
S'arduino'
p1003
ssS'build'
p1004
(dp1005
S'core'
p1006
S'arduino'
p1007
sS'mcu'
p1008
S'atmega328p'
p1009
sS'f_cpu'
p1010
S'8000000L'
p1011
sS'variant'
p1012
S'standard'
p1013
ssS'name'
p1014
S'Arduino Pro or Pro Mini (3.3V, 8 MHz) w/ ATmega328'
p1015
sg147
S'/usr/share/arduino/hardware/arduino'
p1016
saa(lp1017
S'pro'
p1018
a(dp1019
S'bootloader'
p1020
(dp1021
S'extended_fuses'
p1022
S'0x00'
p1023
sS'high_fuses'
p1024
S'0xdd'
p1025
sS'low_fuses'
p1026
S'0xc6'
p1027
sS'lock_bits'
p1028
S'0x0F'
p1029
sS'file'
p1030
S'ATmegaBOOT_168_pro_8MHz.hex'
p1031
sS'path'
p1032
S'atmega'
p1033
sS'unlock_bits'
p1034
S'0x3F'
p1035
ssS'upload'
p1036
(dp1037
S'speed'
p1038
S'19200'
p1039
sS'maximum_size'
p1040
S'14336'
p1041
sS'protocol'
p1042
S'arduino'
p1043
ssS'build'
p1044
(dp1045
S'core'
p1046
S'arduino'
p1047
sS'mcu'
p1048
S'atmega168'
p1049
sS'f_cpu'
p1050
S'8000000L'
p1051
sS'variant'
p1052
S'standard'
p1053
ssS'name'
p1054
S'Arduino Pro or Pro Mini (3.3V, 8 MHz) w/ ATmega168'
p1055
sg147
S'/usr/share/arduino/hardware/arduino'
p1056
saa(lp1057
S'atmega168'
p1058
a(dp1059
S'bootloader'
p1060
(dp1061
S'extended_fuses'
p1062
S'0x00'
p1063
sS'high_fuses'
p1064
S'0xdd'
p1065
sS'low_fuses'
p1066
S'0xff'
p1067
sS'lock_bits'
p1068
S'0x0F'
p1069
sS'file'
p1070
S'ATmegaBOOT_168_ng.hex'
p1071
sS'path'
p1072
S'atmega'
p1073
sS'unlock_bits'
p1074
S'0x3F'
p1075
ssS'upload'
p1076
(dp1077
S'speed'
p1078
S'19200'
p1079
sS'maximum_size'
p1080
S'14336'
p1081
sS'protocol'
p1082
S'arduino'
p1083
ssS'build'
p1084
(dp1085
S'core'
p1086
S'arduino'
p1087
sS'mcu'
p1088
S'atmega168'
p1089
sS'f_cpu'
p1090
S'16000000L'
p1091
sS'variant'
p1092
S'standard'
p1093
ssS'name'
p1094
S'Arduino NG or older w/ ATmega168'
p1095
sg147
S'/usr/share/arduino/hardware/arduino'
p1096
saa(lp1097
S'atmega8'
p1098
a(dp1099
S'bootloader'
p1100
(dp1101
S'high_fuses'
p1102
S'0xca'
p1103
sS'low_fuses'
p1104
S'0xdf'
p1105
sS'lock_bits'
p1106
S'0x0F'
p1107
sS'file'
p1108
S'ATmegaBOOT-prod-firmware-2009-11-07.hex'
p1109
sS'path'
p1110
S'atmega8'
p1111
sS'unlock_bits'
p1112
S'0x3F'
p1113
ssS'upload'
p1114
(dp1115
S'speed'
p1116
S'19200'
p1117
sS'maximum_size'
p1118
S'7168'
p1119
sS'protocol'
p1120
S'arduino'
p1121
ssS'build'
p1122
(dp1123
S'core'
p1124
S'arduino'
p1125
sS'mcu'
p1126
S'atmega8'
p1127
sS'f_cpu'
p1128
S'16000000L'
p1129
sS'variant'
p1130
S'standard'
p1131
ssS'name'
p1132
S'Arduino NG or older w/ ATmega8'
p1133
sg147
S'/usr/share/arduino/hardware/arduino'
p1134
saa(lp1135
S'robotControl'
p1136
a(dp1137
S'bootloader'
p1138
(dp1139
S'extended_fuses'
p1140
S'0xcb'
p1141
sS'high_fuses'
p1142
S'0xd8'
p1143
sS'low_fuses'
p1144
S'0xff'
p1145
sS'lock_bits'
p1146
S'0x2F'
p1147
sS'file'
p1148
S'Caterina-Robot-Control.hex'
p1149
sS'path'
p1150
S'caterina-Arduino_Robot'
p1151
sS'unlock_bits'
p1152
S'0x3F'
p1153
ssS'upload'
p1154
(dp1155
S'speed'
p1156
S'57600'
p1157
sS'maximum_size'
p1158
S'28672'
p1159
sS'protocol'
p1160
S'avr109'
p1161
sS'disable_flushing'
p1162
S'true'
p1163
ssS'build'
p1164
(dp1165
S'core'
p1166
S'robot'
p1167
sS'f_cpu'
p1168
S'16000000L'
p1169
sS'vid'
p1170
S'0x2341'
p1171
sS'pid'
p1172
S'0x8038'
p1173
sS'variant'
p1174
S'robot_control'
p1175
sS'mcu'
p1176
S'atmega32u4'
p1177
ssS'name'
p1178
S'Arduino Robot Control'
p1179
sg147
S'/usr/share/arduino/hardware/arduino'
p1180
saa(lp1181
S'robotMotor'
p1182
a(dp1183
S'bootloader'
p1184
(dp1185
S'extended_fuses'
p1186
S'0xcb'
p1187
sS'high_fuses'
p1188
S'0xd8'
p1189
sS'low_fuses'
p1190
S'0xff'
p1191
sS'lock_bits'
p1192
S'0x2F'
p1193
sS'file'
p1194
S'Caterina-Robot-Motor.hex'
p1195
sS'path'
p1196
S'caterina-Arduino_Robot'
p1197
sS'unlock_bits'
p1198
S'0x3F'
p1199
ssS'upload'
p1200
(dp1201
S'speed'
p1202
S'57600'
p1203
sS'maximum_size'
p1204
S'28672'
p1205
sS'protocol'
p1206
S'avr109'
p1207
sS'disable_flushing'
p1208
S'true'
p1209
ssS'build'
p1210
(dp1211
S'core'
p1212
S'robot'
p1213
sS'f_cpu'
p1214
S'16000000L'
p1215
sS'vid'
p1216
S'0x2341'
p1217
sS'pid'
p1218
S'0x8039'
p1219
sS'variant'
p1220
S'robot_motor'
p1221
sS'mcu'
p1222
S'atmega32u4'
p1223
ssS'name'
p1224
S'Arduino Robot Motor'
p1225
sg147
S'/usr/share/arduino/hardware/arduino'
p1226
saatp1227
Rp1228
(dp1229
S'default'
p1230
S'uno'
p1231
sbtp1232
a(S'used_libs'
p1233
(lp1234
S'/usr/share/arduino/hardware/arduino/cores/arduino'
p1235
aS'lib/ros_lib'
p1236
atp1237
a(S'make'
p1238
S'/usr/share/arduino/hardware/tools/avr/bin/make'
p1239
tp1240
a(S'arduino_libraries_dir'
p1241
S'/usr/share/arduino/libraries'
p1242
tp1243
a(S'cc'
p1244
S'/usr/share/arduino/hardware/tools/avr/bin/avr-gcc'
p1245
tp1246
a(S'cflags'
p1247
g2
(g3
g4
(lp1248
tp1249
Rp1250
tp1251
a(S'cxxflags'
p1252
g2
(g3
g4
(lp1253
S'-fno-exceptions'
p1254
atp1255
Rp1256
tp1257
a(S'arduino_variants_dir'
p1258
S'/usr/share/arduino/hardware/arduino/variants'
p1259
tp1260
a(S'stty'
p1261
S'/bin/stty'
p1262
tp1263
a(S'version.txt'
p1264
S'/usr/share/arduino/lib/version.txt'
p1265
tp1266
a(S'arduino_core_dir'
p1267
g1235
tp1268
a(S'boards.txt'
p1269
(lp1270
S'/usr/share/arduino/hardware/arduino/boards.txt'
p1271
atp1272
a(S'avrdude.conf'
p1273
S'/usr/share/arduino/hardware/tools/avrdude.conf'
p1274
tp1275
a(S'deps'
p1276
g2
(g3
g4
(lp1277
S'.build/uno/src/dependencies.d'
p1278
aS'.build/uno/arduino/dependencies.d'
p1279
aS'.build/uno/ros_lib/dependencies.d'
p1280
atp1281
Rp1282
tp1283
a.