(lp0
(S'cppflags'
p1
ccopy_reg
_reconstructor
p2
(cino.utils
SpaceList
p3
c__builtin__
list
p4
(lp5
S'-mmcu=atmega328p'
p6
aS'-DF_CPU=16000000L'
p7
aS'-DARDUINO=105'
p8
aS'-I/usr/share/arduino/hardware/arduino/cores/arduino'
p9
aS'-ffunction-sections'
p10
aS'-fdata-sections'
p11
aS'-g'
p12
aS'-Os'
p13
aS'-w'
p14
aS'-I/usr/share/arduino/hardware/arduino/variants/standard'
p15
aS'-I/usr/share/arduino/hardware/arduino/cores/arduino'
p16
aS'-I/usr/share/arduino/hardware/arduino/cores/arduino/avr-libc'
p17
aS'-Ilib/ros_lib'
p18
aS'-Ilib/ros_lib/pcl_msgs'
p19
aS'-Ilib/ros_lib/actionlib_tutorials'
p20
aS'-Ilib/ros_lib/tf'
p21
aS'-Ilib/ros_lib/diagnostic_msgs'
p22
aS'-Ilib/ros_lib/theora_image_transport'
p23
aS'-Ilib/ros_lib/trajectory_msgs'
p24
aS'-Ilib/ros_lib/laser_assembler'
p25
aS'-Ilib/ros_lib/nav_msgs'
p26
aS'-Ilib/ros_lib/turtlesim'
p27
aS'-Ilib/ros_lib/motor_control'
p28
aS'-Ilib/ros_lib/ros'
p29
aS'-Ilib/ros_lib/roscpp_tutorials'
p30
aS'-Ilib/ros_lib/turtle_actionlib'
p31
aS'-Ilib/ros_lib/map_msgs'
p32
aS'-Ilib/ros_lib/rospy_tutorials'
p33
aS'-Ilib/ros_lib/sensor_msgs'
p34
aS'-Ilib/ros_lib/rosserial_arduino'
p35
aS'-Ilib/ros_lib/rosserial_msgs'
p36
aS'-Ilib/ros_lib/nodelet'
p37
aS'-Ilib/ros_lib/stereo_msgs'
p38
aS'-Ilib/ros_lib/roscpp'
p39
aS'-Ilib/ros_lib/tests'
p40
aS'-Ilib/ros_lib/actionlib'
p41
aS'-Ilib/ros_lib/shape_msgs'
p42
aS'-Ilib/ros_lib/rosgraph_msgs'
p43
aS'-Ilib/ros_lib/std_msgs'
p44
aS'-Ilib/ros_lib/bond'
p45
aS'-Ilib/ros_lib/topic_tools'
p46
aS'-Ilib/ros_lib/polled_camera'
p47
aS'-Ilib/ros_lib/actionlib_msgs'
p48
aS'-Ilib/ros_lib/std_srvs'
p49
aS'-Ilib/ros_lib/tf2_msgs'
p50
aS'-Ilib/ros_lib/visualization_msgs'
p51
aS'-Ilib/ros_lib/geometry_msgs'
p52
aS'-Ilib/ros_lib/smach_msgs'
p53
aS'-Ilib/ros_lib/gazebo_msgs'
p54
aS'-Ilib/ros_lib/dynamic_reconfigure'
p55
aS'-Ilib/ros_lib/control_msgs'
p56
aS'-Ilib/ros_lib/tests/array_test'
p57
aS'-Ilib/ros_lib/tests/float64_test'
p58
aS'-Ilib/ros_lib/tests/time_test'
p59
atp60
Rp61
tp62
a(S'cxx'
p63
S'/usr/share/arduino/hardware/tools/avr/bin/avr-g++'
p64
tp65
a(S'build_dir'
p66
S'.build/uno'
p67
tp68
a(S'avrdude'
p69
S'/usr/share/arduino/hardware/tools/avrdude'
p70
tp71
a(S'ar'
p72
S'/usr/share/arduino/hardware/tools/avr/bin/avr-ar'
p73
tp74
a(S'names'
p75
(dp76
S'cpp'
p77
S'%s.cpp'
p78
sS'obj'
p79
S'%s.o'
p80
sS'deps'
p81
S'%s.d'
p82
sS'lib'
p83
S'lib%s.a'
p84
stp85
a(S'ldflags'
p86
g2
(g3
g4
(lp87
g6
aS'-Wl,-Os'
p88
aS'-Wl,--gc-sections'
p89
atp90
Rp91
tp92
a(S'arduino_lib_version'
p93
g2
(cino.environment
Version
p94
c__builtin__
tuple
p95
(I1
I0
I5
tp96
tp97
Rp98
tp99
a(S'objcopy'
p100
S'/usr/share/arduino/hardware/tools/avr/bin/avr-objcopy'
p101
tp102
a(S'board_models'
p103
cino.environment
BoardModels
p104
((lp105
(lp106
S'uno'
p107
a(dp108
S'build'
p109
(dp110
S'core'
p111
S'arduino'
p112
sS'mcu'
p113
S'atmega328p'
p114
sS'f_cpu'
p115
S'16000000L'
p116
sS'variant'
p117
S'standard'
p118
ssS'bootloader'
p119
(dp120
S'extended_fuses'
p121
S'0x05'
p122
sS'high_fuses'
p123
S'0xde'
p124
sS'low_fuses'
p125
S'0xff'
p126
sS'lock_bits'
p127
S'0x0F'
p128
sS'file'
p129
S'optiboot_atmega328.hex'
p130
sS'path'
p131
S'optiboot'
p132
sS'unlock_bits'
p133
S'0x3F'
p134
ssS'upload'
p135
(dp136
S'speed'
p137
S'115200'
p138
sS'maximum_size'
p139
S'32256'
p140
sS'protocol'
p141
S'arduino'
p142
ssS'name'
p143
S'Arduino Uno'
p144
sS'_coredir'
p145
S'/usr/share/arduino/hardware/arduino'
p146
saa(lp147
S'atmega328'
p148
a(dp149
S'build'
p150
(dp151
S'core'
p152
S'arduino'
p153
sS'mcu'
p154
S'atmega328p'
p155
sS'f_cpu'
p156
S'16000000L'
p157
sS'variant'
p158
S'standard'
p159
ssS'bootloader'
p160
(dp161
S'extended_fuses'
p162
S'0x05'
p163
sS'high_fuses'
p164
S'0xDA'
p165
sS'low_fuses'
p166
S'0xFF'
p167
sS'lock_bits'
p168
S'0x0F'
p169
sS'file'
p170
S'ATmegaBOOT_168_atmega328.hex'
p171
sS'path'
p172
S'atmega'
p173
sS'unlock_bits'
p174
S'0x3F'
p175
ssS'upload'
p176
(dp177
S'speed'
p178
S'57600'
p179
sS'maximum_size'
p180
S'30720'
p181
sS'protocol'
p182
S'arduino'
p183
ssS'name'
p184
S'Arduino Duemilanove w/ ATmega328'
p185
sg145
S'/usr/share/arduino/hardware/arduino'
p186
saa(lp187
S'diecimila'
p188
a(dp189
S'build'
p190
(dp191
S'core'
p192
S'arduino'
p193
sS'mcu'
p194
S'atmega168'
p195
sS'f_cpu'
p196
S'16000000L'
p197
sS'variant'
p198
S'standard'
p199
ssS'bootloader'
p200
(dp201
S'extended_fuses'
p202
S'0x00'
p203
sS'high_fuses'
p204
S'0xdd'
p205
sS'low_fuses'
p206
S'0xff'
p207
sS'lock_bits'
p208
S'0x0F'
p209
sS'file'
p210
S'ATmegaBOOT_168_diecimila.hex'
p211
sS'path'
p212
S'atmega'
p213
sS'unlock_bits'
p214
S'0x3F'
p215
ssS'upload'
p216
(dp217
S'speed'
p218
S'19200'
p219
sS'maximum_size'
p220
S'14336'
p221
sS'protocol'
p222
S'arduino'
p223
ssS'name'
p224
S'Arduino Diecimila or Duemilanove w/ ATmega168'
p225
sg145
S'/usr/share/arduino/hardware/arduino'
p226
saa(lp227
S'nano328'
p228
a(dp229
S'build'
p230
(dp231
S'core'
p232
S'arduino'
p233
sS'mcu'
p234
S'atmega328p'
p235
sS'f_cpu'
p236
S'16000000L'
p237
sS'variant'
p238
S'eightanaloginputs'
p239
ssS'bootloader'
p240
(dp241
S'extended_fuses'
p242
S'0x05'
p243
sS'high_fuses'
p244
S'0xDA'
p245
sS'low_fuses'
p246
S'0xFF'
p247
sS'lock_bits'
p248
S'0x0F'
p249
sS'file'
p250
S'ATmegaBOOT_168_atmega328.hex'
p251
sS'path'
p252
S'atmega'
p253
sS'unlock_bits'
p254
S'0x3F'
p255
ssS'upload'
p256
(dp257
S'speed'
p258
S'57600'
p259
sS'maximum_size'
p260
S'30720'
p261
sS'protocol'
p262
S'arduino'
p263
ssS'name'
p264
S'Arduino Nano w/ ATmega328'
p265
sg145
S'/usr/share/arduino/hardware/arduino'
p266
saa(lp267
S'nano'
p268
a(dp269
S'build'
p270
(dp271
S'core'
p272
S'arduino'
p273
sS'mcu'
p274
S'atmega168'
p275
sS'f_cpu'
p276
S'16000000L'
p277
sS'variant'
p278
S'eightanaloginputs'
p279
ssS'bootloader'
p280
(dp281
S'extended_fuses'
p282
S'0x00'
p283
sS'high_fuses'
p284
S'0xdd'
p285
sS'low_fuses'
p286
S'0xff'
p287
sS'lock_bits'
p288
S'0x0F'
p289
sS'file'
p290
S'ATmegaBOOT_168_diecimila.hex'
p291
sS'path'
p292
S'atmega'
p293
sS'unlock_bits'
p294
S'0x3F'
p295
ssS'upload'
p296
(dp297
S'speed'
p298
S'19200'
p299
sS'maximum_size'
p300
S'14336'
p301
sS'protocol'
p302
S'arduino'
p303
ssS'name'
p304
S'Arduino Nano w/ ATmega168'
p305
sg145
S'/usr/share/arduino/hardware/arduino'
p306
saa(lp307
S'mega2560'
p308
a(dp309
S'build'
p310
(dp311
S'core'
p312
S'arduino'
p313
sS'mcu'
p314
S'atmega2560'
p315
sS'f_cpu'
p316
S'16000000L'
p317
sS'variant'
p318
S'mega'
p319
ssS'bootloader'
p320
(dp321
S'extended_fuses'
p322
S'0xFD'
p323
sS'high_fuses'
p324
S'0xD8'
p325
sS'low_fuses'
p326
S'0xFF'
p327
sS'lock_bits'
p328
S'0x0F'
p329
sS'file'
p330
S'stk500boot_v2_mega2560.hex'
p331
sS'path'
p332
S'stk500v2'
p333
sS'unlock_bits'
p334
S'0x3F'
p335
ssS'upload'
p336
(dp337
S'speed'
p338
S'115200'
p339
sS'maximum_size'
p340
S'258048'
p341
sS'protocol'
p342
S'wiring'
p343
ssS'name'
p344
S'Arduino Mega 2560 or Mega ADK'
p345
sg145
S'/usr/share/arduino/hardware/arduino'
p346
saa(lp347
S'mega'
p348
a(dp349
S'build'
p350
(dp351
S'core'
p352
S'arduino'
p353
sS'mcu'
p354
S'atmega1280'
p355
sS'f_cpu'
p356
S'16000000L'
p357
sS'variant'
p358
S'mega'
p359
ssS'bootloader'
p360
(dp361
S'extended_fuses'
p362
S'0xF5'
p363
sS'high_fuses'
p364
S'0xDA'
p365
sS'low_fuses'
p366
S'0xFF'
p367
sS'lock_bits'
p368
S'0x0F'
p369
sS'file'
p370
S'ATmegaBOOT_168_atmega1280.hex'
p371
sS'path'
p372
S'atmega'
p373
sS'unlock_bits'
p374
S'0x3F'
p375
ssS'upload'
p376
(dp377
S'speed'
p378
S'57600'
p379
sS'maximum_size'
p380
S'126976'
p381
sS'protocol'
p382
S'arduino'
p383
ssS'name'
p384
S'Arduino Mega (ATmega1280)'
p385
sg145
S'/usr/share/arduino/hardware/arduino'
p386
saa(lp387
S'leonardo'
p388
a(dp389
S'build'
p390
(dp391
S'core'
p392
S'arduino'
p393
sS'f_cpu'
p394
S'16000000L'
p395
sS'vid'
p396
S'0x2341'
p397
sS'pid'
p398
S'0x8036'
p399
sS'variant'
p400
S'leonardo'
p401
sS'mcu'
p402
S'atmega32u4'
p403
ssS'bootloader'
p404
(dp405
S'extended_fuses'
p406
S'0xcb'
p407
sS'high_fuses'
p408
S'0xd8'
p409
sS'low_fuses'
p410
S'0xff'
p411
sS'lock_bits'
p412
S'0x2F'
p413
sS'file'
p414
S'Caterina-Leonardo.hex'
p415
sS'path'
p416
S'caterina'
p417
sS'unlock_bits'
p418
S'0x3F'
p419
ssS'upload'
p420
(dp421
S'speed'
p422
S'57600'
p423
sS'maximum_size'
p424
S'28672'
p425
sS'protocol'
p426
S'avr109'
p427
sS'disable_flushing'
p428
S'true'
p429
ssS'name'
p430
S'Arduino Leonardo'
p431
sg145
S'/usr/share/arduino/hardware/arduino'
p432
saa(lp433
S'esplora'
p434
a(dp435
S'build'
p436
(dp437
S'core'
p438
S'arduino'
p439
sS'f_cpu'
p440
S'16000000L'
p441
sS'vid'
p442
S'0x2341'
p443
sS'pid'
p444
S'0x803C'
p445
sS'variant'
p446
S'leonardo'
p447
sS'mcu'
p448
S'atmega32u4'
p449
ssS'bootloader'
p450
(dp451
S'extended_fuses'
p452
S'0xcb'
p453
sS'high_fuses'
p454
S'0xd8'
p455
sS'low_fuses'
p456
S'0xff'
p457
sS'lock_bits'
p458
S'0x2F'
p459
sS'file'
p460
S'Caterina-Esplora.hex'
p461
sS'path'
p462
S'caterina'
p463
sS'unlock_bits'
p464
S'0x3F'
p465
ssS'upload'
p466
(dp467
S'speed'
p468
S'57600'
p469
sS'maximum_size'
p470
S'28672'
p471
sS'protocol'
p472
S'avr109'
p473
sS'disable_flushing'
p474
S'true'
p475
ssS'name'
p476
S'Arduino Esplora'
p477
sg145
S'/usr/share/arduino/hardware/arduino'
p478
saa(lp479
S'micro'
p480
a(dp481
S'build'
p482
(dp483
S'core'
p484
S'arduino'
p485
sS'f_cpu'
p486
S'16000000L'
p487
sS'vid'
p488
S'0x2341'
p489
sS'pid'
p490
S'0x8037'
p491
sS'variant'
p492
S'micro'
p493
sS'mcu'
p494
S'atmega32u4'
p495
ssS'bootloader'
p496
(dp497
S'extended_fuses'
p498
S'0xcb'
p499
sS'high_fuses'
p500
S'0xd8'
p501
sS'low_fuses'
p502
S'0xff'
p503
sS'lock_bits'
p504
S'0x2F'
p505
sS'file'
p506
S'Caterina-Micro.hex'
p507
sS'path'
p508
S'caterina'
p509
sS'unlock_bits'
p510
S'0x3F'
p511
ssS'upload'
p512
(dp513
S'speed'
p514
S'57600'
p515
sS'maximum_size'
p516
S'28672'
p517
sS'protocol'
p518
S'avr109'
p519
sS'disable_flushing'
p520
S'true'
p521
ssS'name'
p522
S'Arduino Micro'
p523
sg145
S'/usr/share/arduino/hardware/arduino'
p524
saa(lp525
S'mini328'
p526
a(dp527
S'build'
p528
(dp529
S'core'
p530
S'arduino'
p531
sS'mcu'
p532
S'atmega328p'
p533
sS'f_cpu'
p534
S'16000000L'
p535
sS'variant'
p536
S'eightanaloginputs'
p537
ssS'bootloader'
p538
(dp539
S'extended_fuses'
p540
S'0x05'
p541
sS'high_fuses'
p542
S'0xd8'
p543
sS'low_fuses'
p544
S'0xff'
p545
sS'lock_bits'
p546
S'0x0F'
p547
sS'file'
p548
S'optiboot_atmega328-Mini.hex'
p549
sS'path'
p550
S'optiboot'
p551
sS'unlock_bits'
p552
S'0x3F'
p553
ssS'upload'
p554
(dp555
S'speed'
p556
S'115200'
p557
sS'maximum_size'
p558
S'28672'
p559
sS'protocol'
p560
S'arduino'
p561
ssS'name'
p562
S'Arduino Mini w/ ATmega328'
p563
sg145
S'/usr/share/arduino/hardware/arduino'
p564
saa(lp565
S'mini'
p566
a(dp567
S'build'
p568
(dp569
S'core'
p570
S'arduino'
p571
sS'mcu'
p572
S'atmega168'
p573
sS'f_cpu'
p574
S'16000000L'
p575
sS'variant'
p576
S'eightanaloginputs'
p577
ssS'bootloader'
p578
(dp579
S'extended_fuses'
p580
S'0x00'
p581
sS'high_fuses'
p582
S'0xdd'
p583
sS'low_fuses'
p584
S'0xff'
p585
sS'lock_bits'
p586
S'0x0F'
p587
sS'file'
p588
S'ATmegaBOOT_168_ng.hex'
p589
sS'path'
p590
S'atmega'
p591
sS'unlock_bits'
p592
S'0x3F'
p593
ssS'upload'
p594
(dp595
S'speed'
p596
S'19200'
p597
sS'maximum_size'
p598
S'14336'
p599
sS'protocol'
p600
S'arduino'
p601
ssS'name'
p602
S'Arduino Mini w/ ATmega168'
p603
sg145
S'/usr/share/arduino/hardware/arduino'
p604
saa(lp605
S'ethernet'
p606
a(dp607
S'build'
p608
(dp609
S'f_cpu'
p610
S'16000000L'
p611
sS'mcu'
p612
S'atmega328p'
p613
sS'variant'
p614
S'standard'
p615
sS'core'
p616
S'arduino'
p617
ssS'bootloader'
p618
(dp619
S'extended_fuses'
p620
S'0x05'
p621
sS'high_fuses'
p622
S'0xde'
p623
sS'low_fuses'
p624
S'0xff'
p625
sS'lock_bits'
p626
S'0x0F'
p627
sS'file'
p628
S'optiboot_atmega328.hex'
p629
sS'path'
p630
S'optiboot'
p631
sS'unlock_bits'
p632
S'0x3F'
p633
ssS'upload'
p634
(dp635
S'speed'
p636
S'115200'
p637
sS'maximum_size'
p638
S'32256'
p639
sS'protocol'
p640
S'arduino'
p641
ssS'name'
p642
S'Arduino Ethernet'
p643
sg145
S'/usr/share/arduino/hardware/arduino'
p644
saa(lp645
S'fio'
p646
a(dp647
S'build'
p648
(dp649
S'core'
p650
S'arduino'
p651
sS'mcu'
p652
S'atmega328p'
p653
sS'f_cpu'
p654
S'8000000L'
p655
sS'variant'
p656
S'eightanaloginputs'
p657
ssS'bootloader'
p658
(dp659
S'extended_fuses'
p660
S'0x05'
p661
sS'high_fuses'
p662
S'0xDA'
p663
sS'low_fuses'
p664
S'0xFF'
p665
sS'lock_bits'
p666
S'0x0F'
p667
sS'file'
p668
S'ATmegaBOOT_168_atmega328_pro_8MHz.hex'
p669
sS'path'
p670
S'arduino:atmega'
p671
sS'unlock_bits'
p672
S'0x3F'
p673
ssS'upload'
p674
(dp675
S'speed'
p676
S'57600'
p677
sS'maximum_size'
p678
S'30720'
p679
sS'protocol'
p680
S'arduino'
p681
ssS'name'
p682
S'Arduino Fio'
p683
sg145
S'/usr/share/arduino/hardware/arduino'
p684
saa(lp685
S'bt328'
p686
a(dp687
S'build'
p688
(dp689
S'core'
p690
S'arduino'
p691
sS'mcu'
p692
S'atmega328p'
p693
sS'f_cpu'
p694
S'16000000L'
p695
sS'variant'
p696
S'eightanaloginputs'
p697
ssS'bootloader'
p698
(dp699
S'extended_fuses'
p700
S'0x05'
p701
sS'high_fuses'
p702
S'0xd8'
p703
sS'low_fuses'
p704
S'0xff'
p705
sS'lock_bits'
p706
S'0x0F'
p707
sS'file'
p708
S'ATmegaBOOT_168_atmega328_bt.hex'
p709
sS'path'
p710
S'bt'
p711
sS'unlock_bits'
p712
S'0x3F'
p713
ssS'upload'
p714
(dp715
S'speed'
p716
S'19200'
p717
sS'maximum_size'
p718
S'28672'
p719
sS'protocol'
p720
S'arduino'
p721
sS'disable_flushing'
p722
S'true'
p723
ssS'name'
p724
S'Arduino BT w/ ATmega328'
p725
sg145
S'/usr/share/arduino/hardware/arduino'
p726
saa(lp727
S'bt'
p728
a(dp729
S'build'
p730
(dp731
S'core'
p732
S'arduino'
p733
sS'mcu'
p734
S'atmega168'
p735
sS'f_cpu'
p736
S'16000000L'
p737
sS'variant'
p738
S'eightanaloginputs'
p739
ssS'bootloader'
p740
(dp741
S'extended_fuses'
p742
S'0x00'
p743
sS'high_fuses'
p744
S'0xdd'
p745
sS'low_fuses'
p746
S'0xff'
p747
sS'lock_bits'
p748
S'0x0F'
p749
sS'file'
p750
S'ATmegaBOOT_168.hex'
p751
sS'path'
p752
S'bt'
p753
sS'unlock_bits'
p754
S'0x3F'
p755
ssS'upload'
p756
(dp757
S'speed'
p758
S'19200'
p759
sS'maximum_size'
p760
S'14336'
p761
sS'protocol'
p762
S'arduino'
p763
sS'disable_flushing'
p764
S'true'
p765
ssS'name'
p766
S'Arduino BT w/ ATmega168'
p767
sg145
S'/usr/share/arduino/hardware/arduino'
p768
saa(lp769
S'LilyPadUSB'
p770
a(dp771
S'build'
p772
(dp773
S'core'
p774
S'arduino'
p775
sS'f_cpu'
p776
S'8000000L'
p777
sS'vid'
p778
S'0x1B4F'
p779
sS'pid'
p780
S'0x9208'
p781
sS'variant'
p782
S'leonardo'
p783
sS'mcu'
p784
S'atmega32u4'
p785
ssS'bootloader'
p786
(dp787
S'extended_fuses'
p788
S'0xce'
p789
sS'high_fuses'
p790
S'0xd8'
p791
sS'low_fuses'
p792
S'0xff'
p793
sS'lock_bits'
p794
S'0x2F'
p795
sS'file'
p796
S'Caterina-LilyPadUSB.hex'
p797
sS'path'
p798
S'caterina-LilyPadUSB'
p799
sS'unlock_bits'
p800
S'0x3F'
p801
ssS'upload'
p802
(dp803
S'speed'
p804
S'57600'
p805
sS'maximum_size'
p806
S'28672'
p807
sS'protocol'
p808
S'avr109'
p809
sS'disable_flushing'
p810
S'true'
p811
ssS'name'
p812
S'LilyPad Arduino USB'
p813
sg145
S'/usr/share/arduino/hardware/arduino'
p814
saa(lp815
S'lilypad328'
p816
a(dp817
S'build'
p818
(dp819
S'core'
p820
S'arduino'
p821
sS'mcu'
p822
S'atmega328p'
p823
sS'f_cpu'
p824
S'8000000L'
p825
sS'variant'
p826
S'standard'
p827
ssS'bootloader'
p828
(dp829
S'extended_fuses'
p830
S'0x05'
p831
sS'high_fuses'
p832
S'0xDA'
p833
sS'low_fuses'
p834
S'0xFF'
p835
sS'lock_bits'
p836
S'0x0F'
p837
sS'file'
p838
S'ATmegaBOOT_168_atmega328_pro_8MHz.hex'
p839
sS'path'
p840
S'atmega'
p841
sS'unlock_bits'
p842
S'0x3F'
p843
ssS'upload'
p844
(dp845
S'speed'
p846
S'57600'
p847
sS'maximum_size'
p848
S'30720'
p849
sS'protocol'
p850
S'arduino'
p851
ssS'name'
p852
S'LilyPad Arduino w/ ATmega328'
p853
sg145
S'/usr/share/arduino/hardware/arduino'
p854
saa(lp855
S'lilypad'
p856
a(dp857
S'build'
p858
(dp859
S'core'
p860
S'arduino'
p861
sS'mcu'
p862
S'atmega168'
p863
sS'f_cpu'
p864
S'8000000L'
p865
sS'variant'
p866
S'standard'
p867
ssS'bootloader'
p868
(dp869
S'extended_fuses'
p870
S'0x00'
p871
sS'high_fuses'
p872
S'0xdd'
p873
sS'low_fuses'
p874
S'0xe2'
p875
sS'lock_bits'
p876
S'0x0F'
p877
sS'file'
p878
S'LilyPadBOOT_168.hex'
p879
sS'path'
p880
S'lilypad'
p881
sS'unlock_bits'
p882
S'0x3F'
p883
ssS'upload'
p884
(dp885
S'speed'
p886
S'19200'
p887
sS'maximum_size'
p888
S'14336'
p889
sS'protocol'
p890
S'arduino'
p891
ssS'name'
p892
S'LilyPad Arduino w/ ATmega168'
p893
sg145
S'/usr/share/arduino/hardware/arduino'
p894
saa(lp895
S'pro5v328'
p896
a(dp897
S'build'
p898
(dp899
S'core'
p900
S'arduino'
p901
sS'mcu'
p902
S'atmega328p'
p903
sS'f_cpu'
p904
S'16000000L'
p905
sS'variant'
p906
S'standard'
p907
ssS'bootloader'
p908
(dp909
S'extended_fuses'
p910
S'0x05'
p911
sS'high_fuses'
p912
S'0xDA'
p913
sS'low_fuses'
p914
S'0xFF'
p915
sS'lock_bits'
p916
S'0x0F'
p917
sS'file'
p918
S'ATmegaBOOT_168_atmega328.hex'
p919
sS'path'
p920
S'atmega'
p921
sS'unlock_bits'
p922
S'0x3F'
p923
ssS'upload'
p924
(dp925
S'speed'
p926
S'57600'
p927
sS'maximum_size'
p928
S'30720'
p929
sS'protocol'
p930
S'arduino'
p931
ssS'name'
p932
S'Arduino Pro or Pro Mini (5V, 16 MHz) w/ ATmega328'
p933
sg145
S'/usr/share/arduino/hardware/arduino'
p934
saa(lp935
S'pro5v'
p936
a(dp937
S'build'
p938
(dp939
S'core'
p940
S'arduino'
p941
sS'mcu'
p942
S'atmega168'
p943
sS'f_cpu'
p944
S'16000000L'
p945
sS'variant'
p946
S'standard'
p947
ssS'bootloader'
p948
(dp949
S'extended_fuses'
p950
S'0x00'
p951
sS'high_fuses'
p952
S'0xdd'
p953
sS'low_fuses'
p954
S'0xff'
p955
sS'lock_bits'
p956
S'0x0F'
p957
sS'file'
p958
S'ATmegaBOOT_168_diecimila.hex'
p959
sS'path'
p960
S'atmega'
p961
sS'unlock_bits'
p962
S'0x3F'
p963
ssS'upload'
p964
(dp965
S'speed'
p966
S'19200'
p967
sS'maximum_size'
p968
S'14336'
p969
sS'protocol'
p970
S'arduino'
p971
ssS'name'
p972
S'Arduino Pro or Pro Mini (5V, 16 MHz) w/ ATmega168'
p973
sg145
S'/usr/share/arduino/hardware/arduino'
p974
saa(lp975
S'pro328'
p976
a(dp977
S'build'
p978
(dp979
S'core'
p980
S'arduino'
p981
sS'mcu'
p982
S'atmega328p'
p983
sS'f_cpu'
p984
S'8000000L'
p985
sS'variant'
p986
S'standard'
p987
ssS'bootloader'
p988
(dp989
S'extended_fuses'
p990
S'0x05'
p991
sS'high_fuses'
p992
S'0xDA'
p993
sS'low_fuses'
p994
S'0xFF'
p995
sS'lock_bits'
p996
S'0x0F'
p997
sS'file'
p998
S'ATmegaBOOT_168_atmega328_pro_8MHz.hex'
p999
sS'path'
p1000
S'atmega'
p1001
sS'unlock_bits'
p1002
S'0x3F'
p1003
ssS'upload'
p1004
(dp1005
S'speed'
p1006
S'57600'
p1007
sS'maximum_size'
p1008
S'30720'
p1009
sS'protocol'
p1010
S'arduino'
p1011
ssS'name'
p1012
S'Arduino Pro or Pro Mini (3.3V, 8 MHz) w/ ATmega328'
p1013
sg145
S'/usr/share/arduino/hardware/arduino'
p1014
saa(lp1015
S'pro'
p1016
a(dp1017
S'build'
p1018
(dp1019
S'core'
p1020
S'arduino'
p1021
sS'mcu'
p1022
S'atmega168'
p1023
sS'f_cpu'
p1024
S'8000000L'
p1025
sS'variant'
p1026
S'standard'
p1027
ssS'bootloader'
p1028
(dp1029
S'extended_fuses'
p1030
S'0x00'
p1031
sS'high_fuses'
p1032
S'0xdd'
p1033
sS'low_fuses'
p1034
S'0xc6'
p1035
sS'lock_bits'
p1036
S'0x0F'
p1037
sS'file'
p1038
S'ATmegaBOOT_168_pro_8MHz.hex'
p1039
sS'path'
p1040
S'atmega'
p1041
sS'unlock_bits'
p1042
S'0x3F'
p1043
ssS'upload'
p1044
(dp1045
S'speed'
p1046
S'19200'
p1047
sS'maximum_size'
p1048
S'14336'
p1049
sS'protocol'
p1050
S'arduino'
p1051
ssS'name'
p1052
S'Arduino Pro or Pro Mini (3.3V, 8 MHz) w/ ATmega168'
p1053
sg145
S'/usr/share/arduino/hardware/arduino'
p1054
saa(lp1055
S'atmega168'
p1056
a(dp1057
S'build'
p1058
(dp1059
S'core'
p1060
S'arduino'
p1061
sS'mcu'
p1062
S'atmega168'
p1063
sS'f_cpu'
p1064
S'16000000L'
p1065
sS'variant'
p1066
S'standard'
p1067
ssS'bootloader'
p1068
(dp1069
S'extended_fuses'
p1070
S'0x00'
p1071
sS'high_fuses'
p1072
S'0xdd'
p1073
sS'low_fuses'
p1074
S'0xff'
p1075
sS'lock_bits'
p1076
S'0x0F'
p1077
sS'file'
p1078
S'ATmegaBOOT_168_ng.hex'
p1079
sS'path'
p1080
S'atmega'
p1081
sS'unlock_bits'
p1082
S'0x3F'
p1083
ssS'upload'
p1084
(dp1085
S'speed'
p1086
S'19200'
p1087
sS'maximum_size'
p1088
S'14336'
p1089
sS'protocol'
p1090
S'arduino'
p1091
ssS'name'
p1092
S'Arduino NG or older w/ ATmega168'
p1093
sg145
S'/usr/share/arduino/hardware/arduino'
p1094
saa(lp1095
S'atmega8'
p1096
a(dp1097
S'build'
p1098
(dp1099
S'core'
p1100
S'arduino'
p1101
sS'mcu'
p1102
S'atmega8'
p1103
sS'f_cpu'
p1104
S'16000000L'
p1105
sS'variant'
p1106
S'standard'
p1107
ssS'bootloader'
p1108
(dp1109
S'high_fuses'
p1110
S'0xca'
p1111
sS'low_fuses'
p1112
S'0xdf'
p1113
sS'lock_bits'
p1114
S'0x0F'
p1115
sS'file'
p1116
S'ATmegaBOOT-prod-firmware-2009-11-07.hex'
p1117
sS'path'
p1118
S'atmega8'
p1119
sS'unlock_bits'
p1120
S'0x3F'
p1121
ssS'upload'
p1122
(dp1123
S'speed'
p1124
S'19200'
p1125
sS'maximum_size'
p1126
S'7168'
p1127
sS'protocol'
p1128
S'arduino'
p1129
ssS'name'
p1130
S'Arduino NG or older w/ ATmega8'
p1131
sg145
S'/usr/share/arduino/hardware/arduino'
p1132
saa(lp1133
S'robotControl'
p1134
a(dp1135
S'build'
p1136
(dp1137
S'core'
p1138
S'robot'
p1139
sS'f_cpu'
p1140
S'16000000L'
p1141
sS'vid'
p1142
S'0x2341'
p1143
sS'pid'
p1144
S'0x8038'
p1145
sS'variant'
p1146
S'robot_control'
p1147
sS'mcu'
p1148
S'atmega32u4'
p1149
ssS'bootloader'
p1150
(dp1151
S'extended_fuses'
p1152
S'0xcb'
p1153
sS'high_fuses'
p1154
S'0xd8'
p1155
sS'low_fuses'
p1156
S'0xff'
p1157
sS'lock_bits'
p1158
S'0x2F'
p1159
sS'file'
p1160
S'Caterina-Robot-Control.hex'
p1161
sS'path'
p1162
S'caterina-Arduino_Robot'
p1163
sS'unlock_bits'
p1164
S'0x3F'
p1165
ssS'upload'
p1166
(dp1167
S'speed'
p1168
S'57600'
p1169
sS'maximum_size'
p1170
S'28672'
p1171
sS'protocol'
p1172
S'avr109'
p1173
sS'disable_flushing'
p1174
S'true'
p1175
ssS'name'
p1176
S'Arduino Robot Control'
p1177
sg145
S'/usr/share/arduino/hardware/arduino'
p1178
saa(lp1179
S'robotMotor'
p1180
a(dp1181
S'build'
p1182
(dp1183
S'core'
p1184
S'robot'
p1185
sS'f_cpu'
p1186
S'16000000L'
p1187
sS'vid'
p1188
S'0x2341'
p1189
sS'pid'
p1190
S'0x8039'
p1191
sS'variant'
p1192
S'robot_motor'
p1193
sS'mcu'
p1194
S'atmega32u4'
p1195
ssS'bootloader'
p1196
(dp1197
S'extended_fuses'
p1198
S'0xcb'
p1199
sS'high_fuses'
p1200
S'0xd8'
p1201
sS'low_fuses'
p1202
S'0xff'
p1203
sS'lock_bits'
p1204
S'0x2F'
p1205
sS'file'
p1206
S'Caterina-Robot-Motor.hex'
p1207
sS'path'
p1208
S'caterina-Arduino_Robot'
p1209
sS'unlock_bits'
p1210
S'0x3F'
p1211
ssS'upload'
p1212
(dp1213
S'speed'
p1214
S'57600'
p1215
sS'maximum_size'
p1216
S'28672'
p1217
sS'protocol'
p1218
S'avr109'
p1219
sS'disable_flushing'
p1220
S'true'
p1221
ssS'name'
p1222
S'Arduino Robot Motor'
p1223
sg145
S'/usr/share/arduino/hardware/arduino'
p1224
saatp1225
Rp1226
(dp1227
S'default'
p1228
S'uno'
p1229
sbtp1230
a(S'used_libs'
p1231
(lp1232
S'/usr/share/arduino/hardware/arduino/cores/arduino'
p1233
aS'lib/ros_lib'
p1234
atp1235
a(S'make'
p1236
S'/usr/share/arduino/hardware/tools/avr/bin/make'
p1237
tp1238
a(S'arduino_libraries_dir'
p1239
S'/usr/share/arduino/libraries'
p1240
tp1241
a(S'cc'
p1242
S'/usr/share/arduino/hardware/tools/avr/bin/avr-gcc'
p1243
tp1244
a(S'cflags'
p1245
g2
(g3
g4
(lp1246
tp1247
Rp1248
tp1249
a(S'cxxflags'
p1250
g2
(g3
g4
(lp1251
S'-fno-exceptions'
p1252
atp1253
Rp1254
tp1255
a(S'arduino_variants_dir'
p1256
S'/usr/share/arduino/hardware/arduino/variants'
p1257
tp1258
a(S'stty'
p1259
S'/bin/stty'
p1260
tp1261
a(S'version.txt'
p1262
S'/usr/share/arduino/lib/version.txt'
p1263
tp1264
a(S'arduino_core_dir'
p1265
g1233
tp1266
a(S'boards.txt'
p1267
(lp1268
S'/usr/share/arduino/hardware/arduino/boards.txt'
p1269
atp1270
a(S'avrdude.conf'
p1271
S'/usr/share/arduino/hardware/tools/avrdude.conf'
p1272
tp1273
a(S'deps'
p1274
g2
(g3
g4
(lp1275
S'.build/uno/src/dependencies.d'
p1276
aS'.build/uno/arduino/dependencies.d'
p1277
aS'.build/uno/ros_lib/dependencies.d'
p1278
atp1279
Rp1280
tp1281
a.